Archive member included because of file (symbol)

c:/gcc/ppc/bin/../lib/gcc/powerpc-eabi/4.7.2/nof\libgcc.a(_fixunsdfsi.o)
                              obj/core0/core0/app.o (__fixunsdfsi)
c:/gcc/ppc/bin/../lib/gcc/powerpc-eabi/4.7.2/nof\libgcc.a(_addsub_df.o)
                              obj/core0/core0/app.o (__adddf3)
c:/gcc/ppc/bin/../lib/gcc/powerpc-eabi/4.7.2/nof\libgcc.a(_mul_df.o)
                              obj/core0/core0/app.o (__muldf3)
c:/gcc/ppc/bin/../lib/gcc/powerpc-eabi/4.7.2/nof\libgcc.a(_div_df.o)
                              obj/core0/core0/app.o (__divdf3)
c:/gcc/ppc/bin/../lib/gcc/powerpc-eabi/4.7.2/nof\libgcc.a(_gt_df.o)
                              obj/core0/core0/app.o (__gtdf2)
c:/gcc/ppc/bin/../lib/gcc/powerpc-eabi/4.7.2/nof\libgcc.a(_ge_df.o)
                              c:/gcc/ppc/bin/../lib/gcc/powerpc-eabi/4.7.2/nof\libgcc.a(_fixunsdfsi.o) (__gedf2)
c:/gcc/ppc/bin/../lib/gcc/powerpc-eabi/4.7.2/nof\libgcc.a(_lt_df.o)
                              obj/core0/core0/app.o (__ltdf2)
c:/gcc/ppc/bin/../lib/gcc/powerpc-eabi/4.7.2/nof\libgcc.a(_si_to_df.o)
                              obj/core0/core0/app.o (__floatsidf)
c:/gcc/ppc/bin/../lib/gcc/powerpc-eabi/4.7.2/nof\libgcc.a(_df_to_si.o)
                              c:/gcc/ppc/bin/../lib/gcc/powerpc-eabi/4.7.2/nof\libgcc.a(_fixunsdfsi.o) (__fixdfsi)
c:/gcc/ppc/bin/../lib/gcc/powerpc-eabi/4.7.2/nof\libgcc.a(_df_to_sf.o)
                              obj/core0/core0/app.o (__truncdfsf2)
c:/gcc/ppc/bin/../lib/gcc/powerpc-eabi/4.7.2/nof\libgcc.a(_thenan_df.o)
                              c:/gcc/ppc/bin/../lib/gcc/powerpc-eabi/4.7.2/nof\libgcc.a(_addsub_df.o) (__thenan_df)
c:/gcc/ppc/bin/../lib/gcc/powerpc-eabi/4.7.2/nof\libgcc.a(_usi_to_df.o)
                              obj/core0/core0/app.o (__floatunsidf)
c:/gcc/ppc/bin/../lib/gcc/powerpc-eabi/4.7.2/nof\libgcc.a(_make_sf.o)
                              c:/gcc/ppc/bin/../lib/gcc/powerpc-eabi/4.7.2/nof\libgcc.a(_df_to_sf.o) (__make_fp)
c:/gcc/ppc/bin/../lib/gcc/powerpc-eabi/4.7.2/nof\libgcc.a(_pack_df.o)
                              c:/gcc/ppc/bin/../lib/gcc/powerpc-eabi/4.7.2/nof\libgcc.a(_addsub_df.o) (__pack_d)
c:/gcc/ppc/bin/../lib/gcc/powerpc-eabi/4.7.2/nof\libgcc.a(_unpack_df.o)
                              c:/gcc/ppc/bin/../lib/gcc/powerpc-eabi/4.7.2/nof\libgcc.a(_addsub_df.o) (__unpack_d)
c:/gcc/ppc/bin/../lib/gcc/powerpc-eabi/4.7.2/nof\libgcc.a(_fpcmp_parts_df.o)
                              c:/gcc/ppc/bin/../lib/gcc/powerpc-eabi/4.7.2/nof\libgcc.a(_gt_df.o) (__fpcmp_parts_d)
c:/gcc/ppc/bin/../lib/gcc/powerpc-eabi/4.7.2/nof\libgcc.a(_lshrdi3.o)
                              c:/gcc/ppc/bin/../lib/gcc/powerpc-eabi/4.7.2/nof\libgcc.a(_pack_df.o) (__lshrdi3)
c:/gcc/ppc/bin/../lib/gcc/powerpc-eabi/4.7.2/nof\libgcc.a(_ashldi3.o)
                              c:/gcc/ppc/bin/../lib/gcc/powerpc-eabi/4.7.2/nof\libgcc.a(_pack_df.o) (__ashldi3)
c:/gcc/ppc/bin/../lib/gcc/powerpc-eabi/4.7.2/nof\libgcc.a(_pack_sf.o)
                              c:/gcc/ppc/bin/../lib/gcc/powerpc-eabi/4.7.2/nof\libgcc.a(_make_sf.o) (__pack_f)

Discarded input sections

 .text          0x00000000        0x0 obj/core0/crt0.o
 .data          0x00000000        0x0 obj/core0/crt0.o
 .bss           0x00000000        0x0 obj/core0/crt0.o
 .text          0x00000000        0x0 obj/core0/init_mmu.o
 .data          0x00000000        0x0 obj/core0/init_mmu.o
 .bss           0x00000000        0x0 obj/core0/init_mmu.o
 .text          0x00000000        0x0 obj/core0/core0/tables.o
 .data          0x00000000        0x0 obj/core0/core0/tables.o
 .bss           0x00000000        0x0 obj/core0/core0/tables.o
 .data          0x00000000        0x0 obj/core0/core0/interrupt_handlers.o
 .bss           0x00000000        0x0 obj/core0/core0/interrupt_handlers.o
 .group         0x00000000        0x8 obj/core0/init_misc.o
 .group         0x00000000        0x8 obj/core0/init_misc.o
 .group         0x00000000        0x8 obj/core0/init_misc.o
 .text          0x00000000        0x0 obj/core0/init_misc.o
 .data          0x00000000        0x0 obj/core0/init_misc.o
 .bss           0x00000000        0x0 obj/core0/init_misc.o
 .group         0x00000000        0x8 obj/core0/core0/main.o
 .group         0x00000000        0x8 obj/core0/core0/main.o
 .text          0x00000000        0x0 obj/core0/core0/main.o
 .data          0x00000000        0x0 obj/core0/core0/main.o
 .bss           0x00000000        0x0 obj/core0/core0/main.o
 .debug_macro   0x00000000      0x54a obj/core0/core0/main.o
 .debug_macro   0x00000000      0x27e obj/core0/core0/main.o
 .group         0x00000000        0x8 obj/core0/core0/finalize_boot.o
 .group         0x00000000        0x8 obj/core0/core0/finalize_boot.o
 .group         0x00000000        0x8 obj/core0/core0/finalize_boot.o
 .text          0x00000000        0x0 obj/core0/core0/finalize_boot.o
 .data          0x00000000        0x0 obj/core0/core0/finalize_boot.o
 .bss           0x00000000        0x0 obj/core0/core0/finalize_boot.o
 .debug_macro   0x00000000      0x54a obj/core0/core0/finalize_boot.o
 .debug_macro   0x00000000      0x27e obj/core0/core0/finalize_boot.o
 .debug_macro   0x00000000       0x52 obj/core0/core0/finalize_boot.o
 .group         0x00000000        0x8 obj/core0/core0/app.o
 .group         0x00000000        0x8 obj/core0/core0/app.o
 .group         0x00000000        0x8 obj/core0/core0/app.o
 .text          0x00000000        0x0 obj/core0/core0/app.o
 .data          0x00000000        0x0 obj/core0/core0/app.o
 .bss           0x00000000        0x0 obj/core0/core0/app.o
 .bss.hall_counter
                0x00000000        0x4 obj/core0/core0/app.o
 .bss.pwm_dc_old
                0x00000000        0x8 obj/core0/core0/app.o
 .bss.rpm_act_CAN
                0x00000000        0x4 obj/core0/core0/app.o
 .bss.trivial_counter
                0x00000000       0x50 obj/core0/core0/app.o
 .debug_macro   0x00000000      0x54a obj/core0/core0/app.o
 .debug_macro   0x00000000      0x27e obj/core0/core0/app.o
 .debug_macro   0x00000000       0x52 obj/core0/core0/app.o
 .data          0x00000000        0x0 c:/gcc/ppc/bin/../lib/gcc/powerpc-eabi/4.7.2/nof\libgcc.a(_fixunsdfsi.o)
 .bss           0x00000000        0x0 c:/gcc/ppc/bin/../lib/gcc/powerpc-eabi/4.7.2/nof\libgcc.a(_fixunsdfsi.o)
 .got2          0x00000000        0x0 c:/gcc/ppc/bin/../lib/gcc/powerpc-eabi/4.7.2/nof\libgcc.a(_fixunsdfsi.o)
 .data          0x00000000        0x0 c:/gcc/ppc/bin/../lib/gcc/powerpc-eabi/4.7.2/nof\libgcc.a(_addsub_df.o)
 .bss           0x00000000        0x0 c:/gcc/ppc/bin/../lib/gcc/powerpc-eabi/4.7.2/nof\libgcc.a(_addsub_df.o)
 .data          0x00000000        0x0 c:/gcc/ppc/bin/../lib/gcc/powerpc-eabi/4.7.2/nof\libgcc.a(_mul_df.o)
 .bss           0x00000000        0x0 c:/gcc/ppc/bin/../lib/gcc/powerpc-eabi/4.7.2/nof\libgcc.a(_mul_df.o)
 .data          0x00000000        0x0 c:/gcc/ppc/bin/../lib/gcc/powerpc-eabi/4.7.2/nof\libgcc.a(_div_df.o)
 .bss           0x00000000        0x0 c:/gcc/ppc/bin/../lib/gcc/powerpc-eabi/4.7.2/nof\libgcc.a(_div_df.o)
 .data          0x00000000        0x0 c:/gcc/ppc/bin/../lib/gcc/powerpc-eabi/4.7.2/nof\libgcc.a(_gt_df.o)
 .bss           0x00000000        0x0 c:/gcc/ppc/bin/../lib/gcc/powerpc-eabi/4.7.2/nof\libgcc.a(_gt_df.o)
 .got2          0x00000000        0x0 c:/gcc/ppc/bin/../lib/gcc/powerpc-eabi/4.7.2/nof\libgcc.a(_gt_df.o)
 .data          0x00000000        0x0 c:/gcc/ppc/bin/../lib/gcc/powerpc-eabi/4.7.2/nof\libgcc.a(_ge_df.o)
 .bss           0x00000000        0x0 c:/gcc/ppc/bin/../lib/gcc/powerpc-eabi/4.7.2/nof\libgcc.a(_ge_df.o)
 .got2          0x00000000        0x0 c:/gcc/ppc/bin/../lib/gcc/powerpc-eabi/4.7.2/nof\libgcc.a(_ge_df.o)
 .data          0x00000000        0x0 c:/gcc/ppc/bin/../lib/gcc/powerpc-eabi/4.7.2/nof\libgcc.a(_lt_df.o)
 .bss           0x00000000        0x0 c:/gcc/ppc/bin/../lib/gcc/powerpc-eabi/4.7.2/nof\libgcc.a(_lt_df.o)
 .got2          0x00000000        0x0 c:/gcc/ppc/bin/../lib/gcc/powerpc-eabi/4.7.2/nof\libgcc.a(_lt_df.o)
 .data          0x00000000        0x0 c:/gcc/ppc/bin/../lib/gcc/powerpc-eabi/4.7.2/nof\libgcc.a(_si_to_df.o)
 .bss           0x00000000        0x0 c:/gcc/ppc/bin/../lib/gcc/powerpc-eabi/4.7.2/nof\libgcc.a(_si_to_df.o)
 .got2          0x00000000        0x0 c:/gcc/ppc/bin/../lib/gcc/powerpc-eabi/4.7.2/nof\libgcc.a(_si_to_df.o)
 .data          0x00000000        0x0 c:/gcc/ppc/bin/../lib/gcc/powerpc-eabi/4.7.2/nof\libgcc.a(_df_to_si.o)
 .bss           0x00000000        0x0 c:/gcc/ppc/bin/../lib/gcc/powerpc-eabi/4.7.2/nof\libgcc.a(_df_to_si.o)
 .got2          0x00000000        0x0 c:/gcc/ppc/bin/../lib/gcc/powerpc-eabi/4.7.2/nof\libgcc.a(_df_to_si.o)
 .data          0x00000000        0x0 c:/gcc/ppc/bin/../lib/gcc/powerpc-eabi/4.7.2/nof\libgcc.a(_df_to_sf.o)
 .bss           0x00000000        0x0 c:/gcc/ppc/bin/../lib/gcc/powerpc-eabi/4.7.2/nof\libgcc.a(_df_to_sf.o)
 .got2          0x00000000        0x0 c:/gcc/ppc/bin/../lib/gcc/powerpc-eabi/4.7.2/nof\libgcc.a(_df_to_sf.o)
 .text          0x00000000        0x0 c:/gcc/ppc/bin/../lib/gcc/powerpc-eabi/4.7.2/nof\libgcc.a(_thenan_df.o)
 .data          0x00000000        0x0 c:/gcc/ppc/bin/../lib/gcc/powerpc-eabi/4.7.2/nof\libgcc.a(_thenan_df.o)
 .bss           0x00000000        0x0 c:/gcc/ppc/bin/../lib/gcc/powerpc-eabi/4.7.2/nof\libgcc.a(_thenan_df.o)
 .got2          0x00000000        0x0 c:/gcc/ppc/bin/../lib/gcc/powerpc-eabi/4.7.2/nof\libgcc.a(_thenan_df.o)
 .data          0x00000000        0x0 c:/gcc/ppc/bin/../lib/gcc/powerpc-eabi/4.7.2/nof\libgcc.a(_usi_to_df.o)
 .bss           0x00000000        0x0 c:/gcc/ppc/bin/../lib/gcc/powerpc-eabi/4.7.2/nof\libgcc.a(_usi_to_df.o)
 .got2          0x00000000        0x0 c:/gcc/ppc/bin/../lib/gcc/powerpc-eabi/4.7.2/nof\libgcc.a(_usi_to_df.o)
 .data          0x00000000        0x0 c:/gcc/ppc/bin/../lib/gcc/powerpc-eabi/4.7.2/nof\libgcc.a(_make_sf.o)
 .bss           0x00000000        0x0 c:/gcc/ppc/bin/../lib/gcc/powerpc-eabi/4.7.2/nof\libgcc.a(_make_sf.o)
 .got2          0x00000000        0x0 c:/gcc/ppc/bin/../lib/gcc/powerpc-eabi/4.7.2/nof\libgcc.a(_make_sf.o)
 .data          0x00000000        0x0 c:/gcc/ppc/bin/../lib/gcc/powerpc-eabi/4.7.2/nof\libgcc.a(_pack_df.o)
 .bss           0x00000000        0x0 c:/gcc/ppc/bin/../lib/gcc/powerpc-eabi/4.7.2/nof\libgcc.a(_pack_df.o)
 .got2          0x00000000        0x0 c:/gcc/ppc/bin/../lib/gcc/powerpc-eabi/4.7.2/nof\libgcc.a(_pack_df.o)
 .data          0x00000000        0x0 c:/gcc/ppc/bin/../lib/gcc/powerpc-eabi/4.7.2/nof\libgcc.a(_unpack_df.o)
 .bss           0x00000000        0x0 c:/gcc/ppc/bin/../lib/gcc/powerpc-eabi/4.7.2/nof\libgcc.a(_unpack_df.o)
 .got2          0x00000000        0x0 c:/gcc/ppc/bin/../lib/gcc/powerpc-eabi/4.7.2/nof\libgcc.a(_unpack_df.o)
 .data          0x00000000        0x0 c:/gcc/ppc/bin/../lib/gcc/powerpc-eabi/4.7.2/nof\libgcc.a(_fpcmp_parts_df.o)
 .bss           0x00000000        0x0 c:/gcc/ppc/bin/../lib/gcc/powerpc-eabi/4.7.2/nof\libgcc.a(_fpcmp_parts_df.o)
 .got2          0x00000000        0x0 c:/gcc/ppc/bin/../lib/gcc/powerpc-eabi/4.7.2/nof\libgcc.a(_fpcmp_parts_df.o)
 .data          0x00000000        0x0 c:/gcc/ppc/bin/../lib/gcc/powerpc-eabi/4.7.2/nof\libgcc.a(_lshrdi3.o)
 .bss           0x00000000        0x0 c:/gcc/ppc/bin/../lib/gcc/powerpc-eabi/4.7.2/nof\libgcc.a(_lshrdi3.o)
 .got2          0x00000000        0x0 c:/gcc/ppc/bin/../lib/gcc/powerpc-eabi/4.7.2/nof\libgcc.a(_lshrdi3.o)
 .data          0x00000000        0x0 c:/gcc/ppc/bin/../lib/gcc/powerpc-eabi/4.7.2/nof\libgcc.a(_ashldi3.o)
 .bss           0x00000000        0x0 c:/gcc/ppc/bin/../lib/gcc/powerpc-eabi/4.7.2/nof\libgcc.a(_ashldi3.o)
 .got2          0x00000000        0x0 c:/gcc/ppc/bin/../lib/gcc/powerpc-eabi/4.7.2/nof\libgcc.a(_ashldi3.o)
 .data          0x00000000        0x0 c:/gcc/ppc/bin/../lib/gcc/powerpc-eabi/4.7.2/nof\libgcc.a(_pack_sf.o)
 .bss           0x00000000        0x0 c:/gcc/ppc/bin/../lib/gcc/powerpc-eabi/4.7.2/nof\libgcc.a(_pack_sf.o)
 .got2          0x00000000        0x0 c:/gcc/ppc/bin/../lib/gcc/powerpc-eabi/4.7.2/nof\libgcc.a(_pack_sf.o)

Memory Configuration

Name             Origin             Length             Attributes
iboot            0x00000000         0x00004000         xr
iflash           0x00010000         0x00030000         xr
isram            0x40000000         0x00040000         xrw
*default*        0x00000000         0xffffffff

Linker script and memory map

LOAD obj/core0/crt0.o
LOAD obj/core0/init_mmu.o
LOAD obj/core0/core0/tables.o
LOAD obj/core0/core0/interrupt_handlers.o
LOAD obj/core0/init_misc.o
LOAD obj/core0/core0/main.o
LOAD obj/core0/core0/finalize_boot.o
LOAD obj/core0/core0/app.o
LOAD c:/gcc/ppc/bin/../lib/gcc/powerpc-eabi/4.7.2/nof\libgcc.a
LOAD c:/gcc/ppc/bin/../lib/gcc/powerpc-eabi/4.7.2/../../../../powerpc-eabi/lib/nof\libc.a
LOAD c:/gcc/ppc/bin/../lib/gcc/powerpc-eabi/4.7.2/nof\libgcc.a
                [0x00001000]                __STACK_SIZE = DEFINED (__STACK_SIZE)?__STACK_SIZE:0x1000
                0x40000000                isram_base = ORIGIN (isram)
                0x00040000                isram_len = 0x40000

.boot           0x00000000      0x590
 *(.boot_data)
 .boot_data     0x00000000        0x8 obj/core0/crt0.o
                0x00000000                _bam_data
 *(.boot)
 .boot          0x00000008      0x260 obj/core0/crt0.o
                0x00000008                __start
                0x0000004c                __eabi
 .boot          0x00000268      0x18c obj/core0/init_mmu.o
                0x00000268                init_mmu
 .boot          0x000003f4      0x19c obj/core0/init_misc.o
                0x000003f4                clear_wdg
                0x0000044c                init_interrupt_controller

.tables         0x00010000     0x1124
 *(.interrupt_table)
 .interrupt_table
                0x00010000      0xff4 obj/core0/core0/tables.o
                0x00010000                _interrupt_table
                0x00011000                . = ALIGN (0x800)
 *fill*         0x00010ff4        0xc 
 *(.trap_table)
 .trap_table    0x00011000      0x124 obj/core0/core0/tables.o
                0x00011000                _trap_table
                0x00011000                IVOR0trap
                0x00011010                IVOR1trap
                0x00011020                IVOR2trap
                0x00011030                IVOR3trap
                0x00011040                IVOR4trap
                0x00011050                IVOR5trap
                0x00011060                IVOR6trap
                0x00011070                IVOR7trap
                0x00011080                IVOR8trap
                0x00011090                IVOR9trap
                0x000110a0                IVOR10trap
                0x000110b0                IVOR11trap
                0x000110c0                IVOR12trap
                0x000110d0                IVOR13trap
                0x000110e0                IVOR14trap
                0x000110f0                IVOR15trap
                0x00011100                IVOR32trap
                0x00011110                IVOR33trap
                0x00011120                IVOR34trap

.text           0x00011124     0x3d90
 *(.text)
 .text          0x00011124      0x110 obj/core0/core0/interrupt_handlers.o
                0x00011124                eTimer00IntHandler
                0x00011130                eTimer01IntHandler
                0x0001113c                eTimer02IntHandler
                0x00011148                SwIrq3Handler
 .text          0x00011234       0x94 c:/gcc/ppc/bin/../lib/gcc/powerpc-eabi/4.7.2/nof\libgcc.a(_fixunsdfsi.o)
                0x00011234                __fixunsdfsi
 .text          0x000112c8      0x48c c:/gcc/ppc/bin/../lib/gcc/powerpc-eabi/4.7.2/nof\libgcc.a(_addsub_df.o)
                0x00011698                __adddf3
                0x000116f0                __subdf3
 .text          0x00011754      0x314 c:/gcc/ppc/bin/../lib/gcc/powerpc-eabi/4.7.2/nof\libgcc.a(_mul_df.o)
                0x00011758                __muldf3
 .text          0x00011a68      0x214 c:/gcc/ppc/bin/../lib/gcc/powerpc-eabi/4.7.2/nof\libgcc.a(_div_df.o)
                0x00011a6c                __divdf3
 .text          0x00011c7c       0x70 c:/gcc/ppc/bin/../lib/gcc/powerpc-eabi/4.7.2/nof\libgcc.a(_gt_df.o)
                0x00011c7c                __gtdf2
 .text          0x00011cec       0x70 c:/gcc/ppc/bin/../lib/gcc/powerpc-eabi/4.7.2/nof\libgcc.a(_ge_df.o)
                0x00011cec                __gedf2
 .text          0x00011d5c       0x70 c:/gcc/ppc/bin/../lib/gcc/powerpc-eabi/4.7.2/nof\libgcc.a(_lt_df.o)
                0x00011d5c                __ltdf2
 .text          0x00011dcc       0xbc c:/gcc/ppc/bin/../lib/gcc/powerpc-eabi/4.7.2/nof\libgcc.a(_si_to_df.o)
                0x00011dcc                __floatsidf
 .text          0x00011e88       0xdc c:/gcc/ppc/bin/../lib/gcc/powerpc-eabi/4.7.2/nof\libgcc.a(_df_to_si.o)
                0x00011e88                __fixdfsi
 .text          0x00011f64       0x60 c:/gcc/ppc/bin/../lib/gcc/powerpc-eabi/4.7.2/nof\libgcc.a(_df_to_sf.o)
                0x00011f64                __truncdfsf2
 .text          0x00011fc4      0x134 c:/gcc/ppc/bin/../lib/gcc/powerpc-eabi/4.7.2/nof\libgcc.a(_usi_to_df.o)
                0x00011fc4                __floatunsidf
 .text          0x000120f8       0x34 c:/gcc/ppc/bin/../lib/gcc/powerpc-eabi/4.7.2/nof\libgcc.a(_make_sf.o)
                0x000120f8                __make_fp
 .text          0x0001212c      0x220 c:/gcc/ppc/bin/../lib/gcc/powerpc-eabi/4.7.2/nof\libgcc.a(_pack_df.o)
                0x0001212c                __pack_d
 .text          0x0001234c       0xec c:/gcc/ppc/bin/../lib/gcc/powerpc-eabi/4.7.2/nof\libgcc.a(_unpack_df.o)
                0x0001234c                __unpack_d
 .text          0x00012438      0x108 c:/gcc/ppc/bin/../lib/gcc/powerpc-eabi/4.7.2/nof\libgcc.a(_fpcmp_parts_df.o)
                0x00012438                __fpcmp_parts_d
 .text          0x00012540       0x40 c:/gcc/ppc/bin/../lib/gcc/powerpc-eabi/4.7.2/nof\libgcc.a(_lshrdi3.o)
                0x00012540                __lshrdi3
 .text          0x00012580       0x40 c:/gcc/ppc/bin/../lib/gcc/powerpc-eabi/4.7.2/nof\libgcc.a(_ashldi3.o)
                0x00012580                __ashldi3
 .text          0x000125c0      0x138 c:/gcc/ppc/bin/../lib/gcc/powerpc-eabi/4.7.2/nof\libgcc.a(_pack_sf.o)
                0x000125c0                __pack_f
 *(.text.*)
 .text.main     0x000126f8       0x58 obj/core0/core0/main.o
                0x000126f8                main
 .text.init_modes_and_clocks
                0x00012750      0x204 obj/core0/core0/finalize_boot.o
                0x00012750                init_modes_and_clocks
 .text.start_core1
                0x00012954       0x6c obj/core0/core0/finalize_boot.o
                0x00012954                start_core1
 .text.initLEDs
                0x000129c0       0x5c obj/core0/core0/app.o
                0x000129c0                initLEDs
 .text.initSWIRQs
                0x00012a1c       0x2c obj/core0/core0/app.o
                0x00012a1c                initSWIRQs
 .text.initETIMER
                0x00012a48      0x3b0 obj/core0/core0/app.o
                0x00012a48                initETIMER
 .text.initHall
                0x00012df8       0xac obj/core0/core0/app.o
                0x00012df8                initHall
 .text.initPWM  0x00012ea4      0x4e0 obj/core0/core0/app.o
                0x00012ea4                initPWM
 .text.initTables
                0x00013384      0x75c obj/core0/core0/app.o
                0x00013384                initTables
 .text.enableIRQ
                0x00013ae0       0x38 obj/core0/core0/app.o
                0x00013ae0                enableIRQ
 .text.updatePWM
                0x00013b18      0x880 obj/core0/core0/app.o
                0x00013b18                updatePWM
 .text.update_sector
                0x00014398       0x84 obj/core0/core0/app.o
                0x00014398                update_sector
 .text.pi_control
                0x0001441c      0x53c obj/core0/core0/app.o
                0x0001441c                pi_control
 .text.etimer00ISR
                0x00014958      0x16c obj/core0/core0/app.o
                0x00014958                etimer00ISR
 .text.etimer01ISR
                0x00014ac4       0xf8 obj/core0/core0/app.o
                0x00014ac4                etimer01ISR
 .text.etimer02ISR
                0x00014bbc       0xf8 obj/core0/core0/app.o
                0x00014bbc                etimer02ISR
 .text.SwIrq3ISR
                0x00014cb4      0x100 obj/core0/core0/app.o
                0x00014cb4                SwIrq3ISR
 .text.init_app
                0x00014db4       0xf0 obj/core0/core0/app.o
                0x00014db4                init_app
 .text.run_app  0x00014ea4       0x10 obj/core0/core0/app.o
                0x00014ea4                run_app
 *(.init)
 *(.fini)
 *(rdata)
 *(.eini)

.glink          0x00014eb4        0x0
 .glink         0x00000000        0x0 obj/core0/core0/interrupt_handlers.o

.rodata         0x00014eb8       0x18
 *(.rodata)
 .rodata        0x00014eb8       0x18 c:/gcc/ppc/bin/../lib/gcc/powerpc-eabi/4.7.2/nof\libgcc.a(_thenan_df.o)
                0x00014eb8                __thenan_df
 *(.rodata.*)

.eh_frame       0x00014ed0        0x0
 .eh_frame      0x00000000        0x0 obj/core0/core0/interrupt_handlers.o

.eh_frame_hdr   0x00014ed0        0x0
 .eh_frame_hdr  0x00000000        0x0 c:/gcc/ppc/bin/../lib/gcc/powerpc-eabi/4.7.2/nof\libgcc.a(_pack_sf.o)

.rela.dyn       0x00014ed0        0x0
 .rela.iplt     0x00000000        0x0 obj/core0/core0/interrupt_handlers.o
 .rela.got2     0x00000000        0x0 obj/core0/core0/interrupt_handlers.o

.sdata2         0x00014ed0        0x0
                0x00008000                _SDA2_BASE_ = 0x8000
 *(.sdata2)
 *(.sdata2.*)

.sbss2          0x00014ed0        0x0
                0x00014ed0                ee_ssbss2 = .
 *(.sbss2)
 *(.sbss2.*)
                0x00014ed0                ee_esbss2 = .

.rom_copy_info  0x00014ed0        0x0
                0x00014ed0                PROVIDE (ee_load_ram, .)

.data           0x40000000        0x0 load address 0x00014ed0
                0x40000000                ee_sdata = .
                0x00008000                _SDA_BASE_ = 0x8000
 *(.data)
 *(.data.*)

.got2           0x40000000        0xc
 .got2          0x40000000        0x4 c:/gcc/ppc/bin/../lib/gcc/powerpc-eabi/4.7.2/nof\libgcc.a(_addsub_df.o)
 .got2          0x40000004        0x4 c:/gcc/ppc/bin/../lib/gcc/powerpc-eabi/4.7.2/nof\libgcc.a(_mul_df.o)
 .got2          0x40000008        0x4 c:/gcc/ppc/bin/../lib/gcc/powerpc-eabi/4.7.2/nof\libgcc.a(_div_df.o)

.sdata
 *(.sdata)
 *(.sdata.*)

.sbss           0x4000000c        0x0
                0x4000000c                ee_sbss = .
 *(.sbss)
 *(.sbss.*)

.bss            0x40000010      0x88c
 *(.bss)
 *(.bss.*)
 .bss.etimer00ISRCtr
                0x40000010        0x4 obj/core0/core0/app.o
                0x40000010                etimer00ISRCtr
 .bss.etimer01ISRCtr
                0x40000014        0x4 obj/core0/core0/app.o
                0x40000014                etimer01ISRCtr
 .bss.etimer02ISRCtr
                0x40000018        0x4 obj/core0/core0/app.o
                0x40000018                etimer02ISRCtr
 .bss.counter   0x4000001c        0xc obj/core0/core0/app.o
                0x4000001c                counter
 .bss.hall_sensors
                0x40000028        0xc obj/core0/core0/app.o
                0x40000028                hall_sensors
 .bss.sensorsint
                0x40000034        0x4 obj/core0/core0/app.o
                0x40000034                sensorsint
 .bss.sector    0x40000038        0x4 obj/core0/core0/app.o
                0x40000038                sector
 .bss.sector_old
                0x4000003c        0x4 obj/core0/core0/app.o
                0x4000003c                sector_old
 .bss.sector_table
                0x40000040       0x20 obj/core0/core0/app.o
                0x40000040                sector_table
 .bss.pwm_dc    0x40000060        0x8 obj/core0/core0/app.o
                0x40000060                pwm_dc
 .bss.pwm_ena   0x40000068      0x120 obj/core0/core0/app.o
                0x40000068                pwm_ena
 .bss.drv_ena   0x40000188      0x120 obj/core0/core0/app.o
                0x40000188                drv_ena
 .bss.direction_table
                0x400002a8      0x100 obj/core0/core0/app.o
                0x400002a8                direction_table
 .bss.direction
                0x400003a8        0x4 obj/core0/core0/app.o
                0x400003a8                direction
 *fill*         0x400003ac        0x4 
 .bss.rpm_double
                0x400003b0        0x8 obj/core0/core0/app.o
                0x400003b0                rpm_double
 .bss.rpm       0x400003b8        0x4 obj/core0/core0/app.o
                0x400003b8                rpm
 .bss.rpm_tar   0x400003bc        0x4 obj/core0/core0/app.o
                0x400003bc                rpm_tar
 .bss.k_p       0x400003c0        0x8 obj/core0/core0/app.o
                0x400003c0                k_p
 .bss.k_i       0x400003c8        0x8 obj/core0/core0/app.o
                0x400003c8                k_i
 .bss.deviation_i
                0x400003d0        0x8 obj/core0/core0/app.o
                0x400003d0                deviation_i
 .bss.word_count
                0x400003d8        0xc obj/core0/core0/app.o
                0x400003d8                word_count
 .bss.counter0_record
                0x400003e4      0x190 obj/core0/core0/app.o
                0x400003e4                counter0_record
 .bss.counter1_record
                0x40000574      0x190 obj/core0/core0/app.o
                0x40000574                counter1_record
 .bss.counter2_record
                0x40000704      0x190 obj/core0/core0/app.o
                0x40000704                counter2_record
 .bss.core0info
                0x40000894        0x4 obj/core0/core0/app.o
                0x40000894                core0info
 .bss.core1info
                0x40000898        0x4 obj/core0/core0/app.o
                0x40000898                core1info
                0x4000089c                ee_ebss = .

.iplt           0x400008a0        0x0
 .iplt          0x00000000        0x0 obj/core0/core0/interrupt_handlers.o

.stack          0x4000089c     0x1000
                0x4000089c                ee_sstack = .
                0x4000188c                . = (. + (__STACK_SIZE - 0x10))
 *fill*         0x4000089c      0xff0 
                0x4000188c                ee_stack0 = .
                0x4000189c                . = (. + 0x10)
 *fill*         0x4000188c       0x10 
                0x4000189c                ee_estack = .
OUTPUT(bin/MPC5643L_core0.elf elf32-powerpc)

.PPC.EMB.apuinfo
                0x00000000       0x1c
 .PPC.EMB.apuinfo
                0x00000000       0x18 obj/core0/crt0.o
 .PPC.EMB.apuinfo
                0x00000018       0x18 obj/core0/init_mmu.o
 .PPC.EMB.apuinfo
                0x00000030       0x18 obj/core0/core0/interrupt_handlers.o
 .PPC.EMB.apuinfo
                0x00000048       0x18 obj/core0/init_misc.o
 .PPC.EMB.apuinfo
                0x00000060       0x18 obj/core0/core0/main.o
 .PPC.EMB.apuinfo
                0x00000078       0x18 obj/core0/core0/finalize_boot.o
 .PPC.EMB.apuinfo
                0x00000090       0x1c obj/core0/core0/app.o

.comment        0x00000000       0x11
 .comment       0x00000000       0x11 obj/core0/init_misc.o
                                 0x12 (size before relaxing)
 .comment       0x00000000       0x12 obj/core0/core0/main.o
 .comment       0x00000000       0x12 obj/core0/core0/finalize_boot.o
 .comment       0x00000000       0x12 obj/core0/core0/app.o
 .comment       0x00000000       0x12 c:/gcc/ppc/bin/../lib/gcc/powerpc-eabi/4.7.2/nof\libgcc.a(_fixunsdfsi.o)
 .comment       0x00000000       0x12 c:/gcc/ppc/bin/../lib/gcc/powerpc-eabi/4.7.2/nof\libgcc.a(_addsub_df.o)
 .comment       0x00000000       0x12 c:/gcc/ppc/bin/../lib/gcc/powerpc-eabi/4.7.2/nof\libgcc.a(_mul_df.o)
 .comment       0x00000000       0x12 c:/gcc/ppc/bin/../lib/gcc/powerpc-eabi/4.7.2/nof\libgcc.a(_div_df.o)
 .comment       0x00000000       0x12 c:/gcc/ppc/bin/../lib/gcc/powerpc-eabi/4.7.2/nof\libgcc.a(_gt_df.o)
 .comment       0x00000000       0x12 c:/gcc/ppc/bin/../lib/gcc/powerpc-eabi/4.7.2/nof\libgcc.a(_ge_df.o)
 .comment       0x00000000       0x12 c:/gcc/ppc/bin/../lib/gcc/powerpc-eabi/4.7.2/nof\libgcc.a(_lt_df.o)
 .comment       0x00000000       0x12 c:/gcc/ppc/bin/../lib/gcc/powerpc-eabi/4.7.2/nof\libgcc.a(_si_to_df.o)
 .comment       0x00000000       0x12 c:/gcc/ppc/bin/../lib/gcc/powerpc-eabi/4.7.2/nof\libgcc.a(_df_to_si.o)
 .comment       0x00000000       0x12 c:/gcc/ppc/bin/../lib/gcc/powerpc-eabi/4.7.2/nof\libgcc.a(_df_to_sf.o)
 .comment       0x00000000       0x12 c:/gcc/ppc/bin/../lib/gcc/powerpc-eabi/4.7.2/nof\libgcc.a(_thenan_df.o)
 .comment       0x00000000       0x12 c:/gcc/ppc/bin/../lib/gcc/powerpc-eabi/4.7.2/nof\libgcc.a(_usi_to_df.o)
 .comment       0x00000000       0x12 c:/gcc/ppc/bin/../lib/gcc/powerpc-eabi/4.7.2/nof\libgcc.a(_make_sf.o)
 .comment       0x00000000       0x12 c:/gcc/ppc/bin/../lib/gcc/powerpc-eabi/4.7.2/nof\libgcc.a(_pack_df.o)
 .comment       0x00000000       0x12 c:/gcc/ppc/bin/../lib/gcc/powerpc-eabi/4.7.2/nof\libgcc.a(_unpack_df.o)
 .comment       0x00000000       0x12 c:/gcc/ppc/bin/../lib/gcc/powerpc-eabi/4.7.2/nof\libgcc.a(_fpcmp_parts_df.o)
 .comment       0x00000000       0x12 c:/gcc/ppc/bin/../lib/gcc/powerpc-eabi/4.7.2/nof\libgcc.a(_lshrdi3.o)
 .comment       0x00000000       0x12 c:/gcc/ppc/bin/../lib/gcc/powerpc-eabi/4.7.2/nof\libgcc.a(_ashldi3.o)
 .comment       0x00000000       0x12 c:/gcc/ppc/bin/../lib/gcc/powerpc-eabi/4.7.2/nof\libgcc.a(_pack_sf.o)

.gnu.attributes
                0x00000000       0x10
 .gnu.attributes
                0x00000000       0x10 obj/core0/core0/app.o
 .gnu.attributes
                0x00000010       0x10 c:/gcc/ppc/bin/../lib/gcc/powerpc-eabi/4.7.2/nof\libgcc.a(_fixunsdfsi.o)
 .gnu.attributes
                0x00000020       0x10 c:/gcc/ppc/bin/../lib/gcc/powerpc-eabi/4.7.2/nof\libgcc.a(_addsub_df.o)
 .gnu.attributes
                0x00000030       0x10 c:/gcc/ppc/bin/../lib/gcc/powerpc-eabi/4.7.2/nof\libgcc.a(_mul_df.o)
 .gnu.attributes
                0x00000040       0x10 c:/gcc/ppc/bin/../lib/gcc/powerpc-eabi/4.7.2/nof\libgcc.a(_div_df.o)
 .gnu.attributes
                0x00000050       0x10 c:/gcc/ppc/bin/../lib/gcc/powerpc-eabi/4.7.2/nof\libgcc.a(_gt_df.o)
 .gnu.attributes
                0x00000060       0x10 c:/gcc/ppc/bin/../lib/gcc/powerpc-eabi/4.7.2/nof\libgcc.a(_ge_df.o)
 .gnu.attributes
                0x00000070       0x10 c:/gcc/ppc/bin/../lib/gcc/powerpc-eabi/4.7.2/nof\libgcc.a(_lt_df.o)
 .gnu.attributes
                0x00000080       0x10 c:/gcc/ppc/bin/../lib/gcc/powerpc-eabi/4.7.2/nof\libgcc.a(_si_to_df.o)
 .gnu.attributes
                0x00000090       0x10 c:/gcc/ppc/bin/../lib/gcc/powerpc-eabi/4.7.2/nof\libgcc.a(_df_to_si.o)
 .gnu.attributes
                0x000000a0       0x10 c:/gcc/ppc/bin/../lib/gcc/powerpc-eabi/4.7.2/nof\libgcc.a(_df_to_sf.o)
 .gnu.attributes
                0x000000b0       0x10 c:/gcc/ppc/bin/../lib/gcc/powerpc-eabi/4.7.2/nof\libgcc.a(_usi_to_df.o)
 .gnu.attributes
                0x000000c0       0x10 c:/gcc/ppc/bin/../lib/gcc/powerpc-eabi/4.7.2/nof\libgcc.a(_make_sf.o)
 .gnu.attributes
                0x000000d0       0x10 c:/gcc/ppc/bin/../lib/gcc/powerpc-eabi/4.7.2/nof\libgcc.a(_pack_df.o)
 .gnu.attributes
                0x000000e0       0x10 c:/gcc/ppc/bin/../lib/gcc/powerpc-eabi/4.7.2/nof\libgcc.a(_pack_sf.o)

.debug_line     0x00000000      0x8bc
 .debug_line    0x00000000       0xd7 obj/core0/crt0.o
 .debug_line    0x000000d7       0xa0 obj/core0/init_mmu.o
 .debug_line    0x00000177      0x161 obj/core0/core0/tables.o
 .debug_line    0x000002d8       0x9b obj/core0/core0/interrupt_handlers.o
 .debug_line    0x00000373       0xad obj/core0/init_misc.o
 .debug_line    0x00000420       0xad obj/core0/core0/main.o
 .debug_line    0x000004cd       0xdb obj/core0/core0/finalize_boot.o
 .debug_line    0x000005a8      0x314 obj/core0/core0/app.o

.debug_info     0x00000000    0x1e6d7
 .debug_info    0x00000000       0x73 obj/core0/crt0.o
 .debug_info    0x00000073       0x77 obj/core0/init_mmu.o
 .debug_info    0x000000ea       0x77 obj/core0/core0/tables.o
 .debug_info    0x00000161       0x87 obj/core0/core0/interrupt_handlers.o
 .debug_info    0x000001e8     0x533c obj/core0/init_misc.o
 .debug_info    0x00005524       0xad obj/core0/core0/main.o
 .debug_info    0x000055d1     0x3c3b obj/core0/core0/finalize_boot.o
 .debug_info    0x0000920c    0x154cb obj/core0/core0/app.o

.debug_abbrev   0x00000000      0x4a8
 .debug_abbrev  0x00000000       0x14 obj/core0/crt0.o
 .debug_abbrev  0x00000014       0x14 obj/core0/init_mmu.o
 .debug_abbrev  0x00000028       0x12 obj/core0/core0/tables.o
 .debug_abbrev  0x0000003a       0x14 obj/core0/core0/interrupt_handlers.o
 .debug_abbrev  0x0000004e      0x109 obj/core0/init_misc.o
 .debug_abbrev  0x00000157       0x63 obj/core0/core0/main.o
 .debug_abbrev  0x000001ba      0x101 obj/core0/core0/finalize_boot.o
 .debug_abbrev  0x000002bb      0x1ed obj/core0/core0/app.o

.debug_aranges  0x00000000      0x190
 .debug_aranges
                0x00000000       0x20 obj/core0/crt0.o
 .debug_aranges
                0x00000020       0x20 obj/core0/init_mmu.o
 .debug_aranges
                0x00000040       0x28 obj/core0/core0/tables.o
 .debug_aranges
                0x00000068       0x20 obj/core0/core0/interrupt_handlers.o
 .debug_aranges
                0x00000088       0x28 obj/core0/init_misc.o
 .debug_aranges
                0x000000b0       0x20 obj/core0/core0/main.o
 .debug_aranges
                0x000000d0       0x28 obj/core0/core0/finalize_boot.o
 .debug_aranges
                0x000000f8       0x98 obj/core0/core0/app.o

.debug_ranges   0x00000000       0xe8
 .debug_ranges  0x00000000       0x20 obj/core0/core0/tables.o
 .debug_ranges  0x00000020       0x18 obj/core0/init_misc.o
 .debug_ranges  0x00000038       0x10 obj/core0/core0/main.o
 .debug_ranges  0x00000048       0x18 obj/core0/core0/finalize_boot.o
 .debug_ranges  0x00000060       0x88 obj/core0/core0/app.o

.debug_loc      0x00000000      0x57c
 .debug_loc     0x00000000       0x88 obj/core0/init_misc.o
 .debug_loc     0x00000088       0x44 obj/core0/core0/main.o
 .debug_loc     0x000000cc       0x88 obj/core0/core0/finalize_boot.o
 .debug_loc     0x00000154      0x428 obj/core0/core0/app.o

.debug_macro    0x00000000      0x929
 .debug_macro   0x00000000       0x3d obj/core0/init_misc.o
 .debug_macro   0x0000003d      0x54a obj/core0/init_misc.o
 .debug_macro   0x00000587      0x27e obj/core0/init_misc.o
 .debug_macro   0x00000805       0x52 obj/core0/init_misc.o
 .debug_macro   0x00000857       0x4e obj/core0/core0/main.o
 .debug_macro   0x000008a5       0x3d obj/core0/core0/finalize_boot.o
 .debug_macro   0x000008e2       0x47 obj/core0/core0/app.o

.debug_str      0x00000000     0x63af
 .debug_str     0x00000000     0x3bce obj/core0/init_misc.o
                               0x3c1f (size before relaxing)
 .debug_str     0x00003bce       0x4d obj/core0/core0/main.o
                               0x2bb9 (size before relaxing)
 .debug_str     0x00003c1b      0xbe1 obj/core0/core0/finalize_boot.o
                               0x38c1 (size before relaxing)
 .debug_str     0x000047fc     0x1bb3 obj/core0/core0/app.o
                               0x58f4 (size before relaxing)

.debug_frame    0x00000000      0x34c
 .debug_frame   0x00000000       0x58 obj/core0/init_misc.o
 .debug_frame   0x00000058       0x34 obj/core0/core0/main.o
 .debug_frame   0x0000008c       0x58 obj/core0/core0/finalize_boot.o
 .debug_frame   0x000000e4      0x268 obj/core0/core0/app.o
