
bin/MPC5643L_core0.elf:     file format elf32-powerpc


Disassembly of section .boot:

00000000 <_bam_data>:
   0:	00 5a 00 00 	.long 0x5a0000
   4:	00 00 00 08 	.long 0x8

00000008 <__start>:
   8:	48 00 00 49 	bl      50 <init_regs>
   c:	48 00 02 5d 	bl      268 <init_mmu>
  10:	48 00 01 bd 	bl      1cc <init_sram_data>
  14:	3c 00 00 01 	lis     r0,1
  18:	60 00 10 00 	ori     r0,r0,4096
  1c:	7c 1f 0b a6 	mtspr   63,r0
  20:	3c 00 00 01 	lis     r0,1
  24:	60 00 00 00 	nop
  28:	7c 1f 0b a6 	mtspr   63,r0
  2c:	94 21 ff f8 	stwu    r1,-8(r1)
  30:	38 00 00 00 	li      r0,0
  34:	90 01 00 00 	stw     r0,0(r1)
  38:	38 00 ff ff 	li      r0,-1
  3c:	90 01 00 04 	stw     r0,4(r1)
  40:	48 01 26 b9 	bl      126f8 <main>
  44:	7c 00 01 46 	.long 0x7c000146
  48:	48 00 00 00 	b       48 <__start+0x40>

0000004c <__eabi>:
  4c:	4e 80 00 20 	blr

00000050 <init_regs>:
  50:	3c 60 02 00 	lis     r3,512
  54:	60 63 00 00 	ori     r3,r3,0
  58:	7c 60 01 24 	mtmsr   r3
  5c:	4c 00 01 2c 	isync
  60:	38 00 00 00 	li      r0,0
  64:	38 20 00 00 	li      r1,0
  68:	38 40 00 00 	li      r2,0
  6c:	38 60 00 00 	li      r3,0
  70:	38 80 00 00 	li      r4,0
  74:	38 a0 00 00 	li      r5,0
  78:	38 c0 00 00 	li      r6,0
  7c:	38 e0 00 00 	li      r7,0
  80:	39 00 00 00 	li      r8,0
  84:	39 20 00 00 	li      r9,0
  88:	39 40 00 00 	li      r10,0
  8c:	39 60 00 00 	li      r11,0
  90:	39 80 00 00 	li      r12,0
  94:	39 a0 00 00 	li      r13,0
  98:	39 c0 00 00 	li      r14,0
  9c:	39 e0 00 00 	li      r15,0
  a0:	3a 00 00 00 	li      r16,0
  a4:	3a 20 00 00 	li      r17,0
  a8:	3a 40 00 00 	li      r18,0
  ac:	3a 60 00 00 	li      r19,0
  b0:	3a 80 00 00 	li      r20,0
  b4:	3a a0 00 00 	li      r21,0
  b8:	3a c0 00 00 	li      r22,0
  bc:	3a e0 00 00 	li      r23,0
  c0:	3b 00 00 00 	li      r24,0
  c4:	3b 20 00 00 	li      r25,0
  c8:	3b 40 00 00 	li      r26,0
  cc:	3b 60 00 00 	li      r27,0
  d0:	3b 80 00 00 	li      r28,0
  d4:	3b a0 00 00 	li      r29,0
  d8:	3b c0 00 00 	li      r30,0
  dc:	3b e0 00 00 	li      r31,0
  e0:	7f d0 63 a6 	mtspr   400,r30
  e4:	7f d1 63 a6 	mtspr   401,r30
  e8:	7f d2 63 a6 	mtspr   402,r30
  ec:	7f d3 63 a6 	mtspr   403,r30
  f0:	7f d4 63 a6 	mtspr   404,r30
  f4:	7f d5 63 a6 	mtspr   405,r30
  f8:	7f d6 63 a6 	mtspr   406,r30
  fc:	7f d7 63 a6 	mtspr   407,r30
 100:	7f d8 63 a6 	mtspr   408,r30
 104:	7f d9 63 a6 	mtspr   409,r30
 108:	7f da 63 a6 	mtspr   410,r30
 10c:	7f db 63 a6 	mtspr   411,r30
 110:	7f dc 63 a6 	mtspr   412,r30
 114:	7f dd 63 a6 	mtspr   413,r30
 118:	7f de 63 a6 	mtspr   414,r30
 11c:	7f df 63 a6 	mtspr   415,r30
 120:	7f d0 83 a6 	mtibatu 0,r30
 124:	7f d1 83 a6 	mtibatl 0,r30
 128:	7f d2 83 a6 	mtibatu 1,r30
 12c:	7f ef f1 20 	mtcr    r31
 130:	7f fc 43 a6 	mttbl   r31
 134:	7f fd 43 a6 	mttbu   r31
 138:	7f f0 43 a6 	mtsprg  0,r31
 13c:	7f f1 43 a6 	mtsprg  1,r31
 140:	7f f2 43 a6 	mtsprg  2,r31
 144:	7f f3 43 a6 	mtsprg  3,r31
 148:	7f f4 43 a6 	mtspr   276,r31
 14c:	7f f5 43 a6 	mtspr   277,r31
 150:	7f f6 43 a6 	mtspr   278,r31
 154:	7f f7 43 a6 	mtspr   279,r31
 158:	7f fc 93 a6 	mtspr   604,r31
 15c:	7f fd 93 a6 	mtspr   605,r31
 160:	7f fa 03 a6 	mtsrr0  r31
 164:	7f fb 03 a6 	mtsrr1  r31
 168:	7f fa 0b a6 	mtspr   58,r31
 16c:	7f fb 0b a6 	mtspr   59,r31
 170:	7f ff 0b a6 	mtspr   63,r31
 174:	7f fd 0b a6 	mtspr   61,r31
 178:	7f fe 0b a6 	mtspr   62,r31
 17c:	7f fa 8b a6 	mtspr   570,r31
 180:	7f fb 8b a6 	mtspr   571,r31
 184:	7f fc 8b a6 	mtspr   572,r31
 188:	7f fd 8b a6 	mtspr   573,r31
 18c:	7f fe 8b a6 	mtspr   574,r31
 190:	7f ff 8b a6 	mtspr   575,r31
 194:	7f f4 53 a6 	mtspr   340,r31
 198:	7f f0 53 a6 	mtspr   336,r31
 19c:	7f e0 83 a6 	mtspr   512,r31
 1a0:	7f e1 03 a6 	mtxer   r31
 1a4:	7f e0 43 a6 	mtvrsave r31
 1a8:	7f e9 03 a6 	mtctr   r31
 1ac:	7f f4 4b a6 	mtspr   308,r31
 1b0:	7f f5 4b a6 	mtspr   309,r31
 1b4:	7f f6 4b a6 	mtspr   310,r31
 1b8:	7f f1 8b a6 	mtspr   561,r31
 1bc:	7f f3 8b a6 	mtspr   563,r31
 1c0:	7f f4 8b a6 	mtspr   564,r31
 1c4:	7f fb 93 a6 	mtspr   603,r31
 1c8:	4e 80 00 20 	blr

000001cc <init_sram_data>:
 1cc:	3d 00 40 00 	lis     r8,16384
 1d0:	38 28 18 8c 	addi    r1,r8,6284
 1d4:	3d 00 00 01 	lis     r8,1
 1d8:	39 08 4e d0 	addi    r8,r8,20176
 1dc:	3d 20 40 00 	lis     r9,16384
 1e0:	39 29 00 0c 	addi    r9,r9,12
 1e4:	3d 40 40 00 	lis     r10,16384
 1e8:	39 4a 00 00 	addi    r10,r10,0
 1ec:	7c 08 50 40 	cmplw   r8,r10
 1f0:	41 82 00 20 	beq-    210 <init_sram_data+0x44>
 1f4:	81 68 00 00 	lwz     r11,0(r8)
 1f8:	39 08 00 04 	addi    r8,r8,4
 1fc:	91 6a 00 00 	stw     r11,0(r10)
 200:	39 4a 00 04 	addi    r10,r10,4
 204:	7c 0a 48 40 	cmplw   r10,r9
 208:	41 80 ff ec 	blt+    1f4 <init_sram_data+0x28>
 20c:	7c 00 04 ac 	sync    
 210:	3d 00 40 00 	lis     r8,16384
 214:	39 08 08 9c 	addi    r8,r8,2204
 218:	39 60 00 00 	li      r11,0
 21c:	91 69 00 00 	stw     r11,0(r9)
 220:	39 29 00 04 	addi    r9,r9,4
 224:	7c 09 40 40 	cmplw   r9,r8
 228:	41 80 ff f4 	blt+    21c <init_sram_data+0x50>
 22c:	3d 00 40 00 	lis     r8,16384
 230:	39 08 18 9c 	addi    r8,r8,6300
 234:	3d 20 40 00 	lis     r9,16384
 238:	39 29 08 9c 	addi    r9,r9,2204
 23c:	3d 60 a5 a6 	lis     r11,-23130
 240:	39 6b a5 a5 	addi    r11,r11,-23131
 244:	91 69 00 00 	stw     r11,0(r9)
 248:	39 29 00 04 	addi    r9,r9,4
 24c:	7c 09 40 40 	cmplw   r9,r8
 250:	41 80 ff f4 	blt+    244 <init_sram_data+0x78>
 254:	3d a0 40 01 	lis     r13,16385
 258:	39 ad 80 00 	addi    r13,r13,-32768
 25c:	3c 40 00 02 	lis     r2,2
 260:	38 42 ce d0 	addi    r2,r2,-12592
 264:	4e 80 00 20 	blr

00000268 <init_mmu>:
 268:	7f a8 02 a6 	mflr    r29
 26c:	3c 60 00 02 	lis     r3,2
 270:	60 63 00 00 	ori     r3,r3,0
 274:	3c 80 c0 00 	lis     r4,-16384
 278:	60 84 03 00 	ori     r4,r4,768
 27c:	3c a0 40 00 	lis     r5,16384
 280:	60 a5 00 08 	ori     r5,r5,8
 284:	3c c0 40 00 	lis     r6,16384
 288:	60 c6 00 3f 	ori     r6,r6,63
 28c:	48 00 01 51 	bl      3dc <write_mmu_entry>
 290:	3c 60 00 03 	lis     r3,3
 294:	60 63 00 00 	ori     r3,r3,0
 298:	3c 80 c0 00 	lis     r4,-16384
 29c:	60 84 03 00 	ori     r4,r4,768
 2a0:	3c a0 50 00 	lis     r5,20480
 2a4:	60 a5 00 08 	ori     r5,r5,8
 2a8:	3c c0 50 00 	lis     r6,20480
 2ac:	60 c6 00 3f 	ori     r6,r6,63
 2b0:	48 00 01 2d 	bl      3dc <write_mmu_entry>
 2b4:	3c 60 00 00 	lis     r3,0
 2b8:	60 63 00 00 	ori     r3,r3,0
 2bc:	3c 80 c0 00 	lis     r4,-16384
 2c0:	60 84 05 00 	ori     r4,r4,1280
 2c4:	3c a0 00 00 	lis     r5,0
 2c8:	60 a5 00 08 	ori     r5,r5,8
 2cc:	3c c0 00 00 	lis     r6,0
 2d0:	60 c6 00 3f 	ori     r6,r6,63
 2d4:	48 00 01 09 	bl      3dc <write_mmu_entry>
 2d8:	3c 60 00 01 	lis     r3,1
 2dc:	60 63 00 00 	ori     r3,r3,0
 2e0:	3c 80 c0 00 	lis     r4,-16384
 2e4:	60 84 05 00 	ori     r4,r4,1280
 2e8:	3c a0 00 f0 	lis     r5,240
 2ec:	60 a5 00 08 	ori     r5,r5,8
 2f0:	3c c0 00 f0 	lis     r6,240
 2f4:	60 c6 00 3f 	ori     r6,r6,63
 2f8:	48 00 00 e5 	bl      3dc <write_mmu_entry>
 2fc:	3c 60 00 04 	lis     r3,4
 300:	60 63 00 00 	ori     r3,r3,0
 304:	3c 80 c0 00 	lis     r4,-16384
 308:	60 84 05 00 	ori     r4,r4,1280
 30c:	3c a0 8f f0 	lis     r5,-28688
 310:	60 a5 00 0a 	ori     r5,r5,10
 314:	3c c0 8f f0 	lis     r6,-28688
 318:	60 c6 00 3f 	ori     r6,r6,63
 31c:	48 00 00 c1 	bl      3dc <write_mmu_entry>
 320:	3c 60 00 05 	lis     r3,5
 324:	60 63 00 00 	ori     r3,r3,0
 328:	3c 80 c0 00 	lis     r4,-16384
 32c:	60 84 05 00 	ori     r4,r4,1280
 330:	3c a0 c3 f0 	lis     r5,-15376
 334:	60 a5 00 0a 	ori     r5,r5,10
 338:	3c c0 c3 f0 	lis     r6,-15376
 33c:	60 c6 00 3f 	ori     r6,r6,63
 340:	48 00 00 9d 	bl      3dc <write_mmu_entry>
 344:	3c 60 00 06 	lis     r3,6
 348:	60 63 00 00 	ori     r3,r3,0
 34c:	3c 80 c0 00 	lis     r4,-16384
 350:	60 84 05 00 	ori     r4,r4,1280
 354:	3c a0 ff e0 	lis     r5,-32
 358:	60 a5 00 08 	ori     r5,r5,8
 35c:	3c c0 ff e0 	lis     r6,-32
 360:	60 c6 00 3f 	ori     r6,r6,63
 364:	48 00 00 79 	bl      3dc <write_mmu_entry>
 368:	3c 60 00 07 	lis     r3,7
 36c:	60 63 00 00 	ori     r3,r3,0
 370:	3c 80 c0 00 	lis     r4,-16384
 374:	60 84 04 80 	ori     r4,r4,1152
 378:	3c a0 ff f0 	lis     r5,-16
 37c:	60 a5 00 08 	ori     r5,r5,8
 380:	3c c0 ff f0 	lis     r6,-16
 384:	60 c6 00 3f 	ori     r6,r6,63
 388:	48 00 00 55 	bl      3dc <write_mmu_entry>
 38c:	3c 60 00 08 	lis     r3,8
 390:	60 63 00 00 	ori     r3,r3,0
 394:	3c 80 c0 00 	lis     r4,-16384
 398:	60 84 03 00 	ori     r4,r4,768
 39c:	3c a0 ff f9 	lis     r5,-7
 3a0:	60 a5 00 08 	ori     r5,r5,8
 3a4:	3c c0 ff f9 	lis     r6,-7
 3a8:	60 c6 00 3f 	ori     r6,r6,63
 3ac:	48 00 00 31 	bl      3dc <write_mmu_entry>
 3b0:	3c 60 00 09 	lis     r3,9
 3b4:	60 63 00 00 	ori     r3,r3,0
 3b8:	3c 80 c0 00 	lis     r4,-16384
 3bc:	60 84 04 00 	ori     r4,r4,1024
 3c0:	3c a0 ff fc 	lis     r5,-4
 3c4:	60 a5 00 08 	ori     r5,r5,8
 3c8:	3c c0 ff fc 	lis     r6,-4
 3cc:	60 c6 00 3f 	ori     r6,r6,63
 3d0:	48 00 00 0d 	bl      3dc <write_mmu_entry>
 3d4:	7f a8 03 a6 	mtlr    r29
 3d8:	4e 80 00 20 	blr

000003dc <write_mmu_entry>:
 3dc:	7c 70 9b a6 	mtspr   624,r3
 3e0:	7c 91 9b a6 	mtspr   625,r4
 3e4:	7c b2 9b a6 	mtspr   626,r5
 3e8:	7c d3 9b a6 	mtspr   627,r6
 3ec:	7c 00 07 a4 	tlbld   r0
 3f0:	4e 80 00 20 	blr

000003f4 <clear_wdg>:
 3f4:	94 21 ff f0 	stwu    r1,-16(r1)
 3f8:	93 e1 00 0c 	stw     r31,12(r1)
 3fc:	7c 3f 0b 78 	mr      r31,r1
 400:	3d 20 ff f3 	lis     r9,-13
 404:	61 29 80 00 	ori     r9,r9,32768
 408:	39 40 00 00 	li      r10,0
 40c:	61 4a c5 20 	ori     r10,r10,50464
 410:	91 49 00 10 	stw     r10,16(r9)
 414:	3d 20 ff f3 	lis     r9,-13
 418:	61 29 80 00 	ori     r9,r9,32768
 41c:	39 40 00 00 	li      r10,0
 420:	61 4a d9 28 	ori     r10,r10,55592
 424:	91 49 00 10 	stw     r10,16(r9)
 428:	3d 20 ff f3 	lis     r9,-13
 42c:	61 29 80 00 	ori     r9,r9,32768
 430:	3d 40 ff 00 	lis     r10,-256
 434:	61 4a 00 0a 	ori     r10,r10,10
 438:	91 49 00 00 	stw     r10,0(r9)
 43c:	39 7f 00 10 	addi    r11,r31,16
 440:	83 eb ff fc 	lwz     r31,-4(r11)
 444:	7d 61 5b 78 	mr      r1,r11
 448:	4e 80 00 20 	blr

0000044c <init_interrupt_controller>:
 44c:	94 21 ff f0 	stwu    r1,-16(r1)
 450:	93 e1 00 0c 	stw     r31,12(r1)
 454:	7c 3f 0b 78 	mr      r31,r1
 458:	3d 20 ff f4 	lis     r9,-12
 45c:	61 2a 80 00 	ori     r10,r9,32768
 460:	81 2a 00 00 	lwz     r9,0(r10)
 464:	39 00 00 00 	li      r8,0
 468:	51 09 2e b4 	rlwimi  r9,r8,5,26,26
 46c:	91 2a 00 00 	stw     r9,0(r10)
 470:	3d 20 ff f4 	lis     r9,-12
 474:	61 2a 80 00 	ori     r10,r9,32768
 478:	81 2a 00 00 	lwz     r9,0(r10)
 47c:	39 00 00 01 	li      r8,1
 480:	51 09 07 fe 	rlwimi  r9,r8,0,31,31
 484:	91 2a 00 00 	stw     r9,0(r10)
 488:	3d 20 ff f4 	lis     r9,-12
 48c:	61 29 80 00 	ori     r9,r9,32768
 490:	3d 40 00 01 	lis     r10,1
 494:	39 4a 00 00 	addi    r10,r10,0
 498:	91 49 00 10 	stw     r10,16(r9)
 49c:	3d 20 00 01 	lis     r9,1
 4a0:	39 29 10 00 	addi    r9,r9,4096
 4a4:	7d 30 63 a6 	mtspr   400,r9
 4a8:	3d 20 00 01 	lis     r9,1
 4ac:	39 29 10 10 	addi    r9,r9,4112
 4b0:	7d 31 63 a6 	mtspr   401,r9
 4b4:	3d 20 00 01 	lis     r9,1
 4b8:	39 29 10 20 	addi    r9,r9,4128
 4bc:	7d 32 63 a6 	mtspr   402,r9
 4c0:	3d 20 00 01 	lis     r9,1
 4c4:	39 29 10 30 	addi    r9,r9,4144
 4c8:	7d 33 63 a6 	mtspr   403,r9
 4cc:	3d 20 00 01 	lis     r9,1
 4d0:	39 29 10 40 	addi    r9,r9,4160
 4d4:	7d 34 63 a6 	mtspr   404,r9
 4d8:	3d 20 00 01 	lis     r9,1
 4dc:	39 29 10 50 	addi    r9,r9,4176
 4e0:	7d 35 63 a6 	mtspr   405,r9
 4e4:	3d 20 00 01 	lis     r9,1
 4e8:	39 29 10 60 	addi    r9,r9,4192
 4ec:	7d 36 63 a6 	mtspr   406,r9
 4f0:	3d 20 00 01 	lis     r9,1
 4f4:	39 29 10 70 	addi    r9,r9,4208
 4f8:	7d 37 63 a6 	mtspr   407,r9
 4fc:	3d 20 00 01 	lis     r9,1
 500:	39 29 10 80 	addi    r9,r9,4224
 504:	7d 38 63 a6 	mtspr   408,r9
 508:	3d 20 00 01 	lis     r9,1
 50c:	39 29 10 90 	addi    r9,r9,4240
 510:	7d 39 63 a6 	mtspr   409,r9
 514:	3d 20 00 01 	lis     r9,1
 518:	39 29 10 a0 	addi    r9,r9,4256
 51c:	7d 3a 63 a6 	mtspr   410,r9
 520:	3d 20 00 01 	lis     r9,1
 524:	39 29 10 b0 	addi    r9,r9,4272
 528:	7d 3b 63 a6 	mtspr   411,r9
 52c:	3d 20 00 01 	lis     r9,1
 530:	39 29 10 c0 	addi    r9,r9,4288
 534:	7d 3c 63 a6 	mtspr   412,r9
 538:	3d 20 00 01 	lis     r9,1
 53c:	39 29 10 d0 	addi    r9,r9,4304
 540:	7d 3d 63 a6 	mtspr   413,r9
 544:	3d 20 00 01 	lis     r9,1
 548:	39 29 10 e0 	addi    r9,r9,4320
 54c:	7d 3e 63 a6 	mtspr   414,r9
 550:	3d 20 00 01 	lis     r9,1
 554:	39 29 10 f0 	addi    r9,r9,4336
 558:	7d 3f 63 a6 	mtspr   415,r9
 55c:	3d 20 00 01 	lis     r9,1
 560:	39 29 11 00 	addi    r9,r9,4352
 564:	7d 30 83 a6 	mtibatu 0,r9
 568:	3d 20 00 01 	lis     r9,1
 56c:	39 29 11 10 	addi    r9,r9,4368
 570:	7d 31 83 a6 	mtibatl 0,r9
 574:	3d 20 00 01 	lis     r9,1
 578:	39 29 11 20 	addi    r9,r9,4384
 57c:	7d 32 83 a6 	mtibatu 1,r9
 580:	39 7f 00 10 	addi    r11,r31,16
 584:	83 eb ff fc 	lwz     r31,-4(r11)
 588:	7d 61 5b 78 	mr      r1,r11
 58c:	4e 80 00 20 	blr

Disassembly of section .tables:

00010000 <_interrupt_table>:
   10000:	48 00 00 00 	b       10000 <_interrupt_table>
	...

00010010 <hw_vect1>:
   10010:	48 00 00 00 	b       10010 <hw_vect1>
	...

00010020 <hw_vect2>:
   10020:	48 00 00 00 	b       10020 <hw_vect2>
	...

00010030 <hw_vect3>:
   10030:	48 00 11 18 	b       11148 <SwIrq3Handler>
	...

00010040 <hw_vect4>:
   10040:	48 00 00 00 	b       10040 <hw_vect4>
	...

00010050 <hw_vect5>:
   10050:	48 00 00 00 	b       10050 <hw_vect5>
	...

00010060 <hw_vect6>:
   10060:	48 00 00 00 	b       10060 <hw_vect6>
	...

00010070 <hw_vect7>:
   10070:	48 00 00 00 	b       10070 <hw_vect7>
	...

00010080 <hw_vect8>:
   10080:	48 00 00 00 	b       10080 <hw_vect8>
	...

00010090 <hw_vect9>:
   10090:	48 00 00 00 	b       10090 <hw_vect9>
	...

000100a0 <hw_vect10>:
   100a0:	48 00 00 00 	b       100a0 <hw_vect10>
	...

000100b0 <hw_vect11>:
   100b0:	48 00 00 00 	b       100b0 <hw_vect11>
	...

000100c0 <hw_vect12>:
   100c0:	48 00 00 00 	b       100c0 <hw_vect12>
	...

000100d0 <hw_vect13>:
   100d0:	48 00 00 00 	b       100d0 <hw_vect13>
	...

000100e0 <hw_vect14>:
   100e0:	48 00 00 00 	b       100e0 <hw_vect14>
	...

000100f0 <hw_vect15>:
   100f0:	48 00 00 00 	b       100f0 <hw_vect15>
	...

00010100 <hw_vect16>:
   10100:	48 00 00 00 	b       10100 <hw_vect16>
	...

00010110 <hw_vect17>:
   10110:	48 00 00 00 	b       10110 <hw_vect17>
	...

00010120 <hw_vect18>:
   10120:	48 00 00 00 	b       10120 <hw_vect18>
	...

00010130 <hw_vect19>:
   10130:	48 00 00 00 	b       10130 <hw_vect19>
	...

00010140 <hw_vect20>:
   10140:	48 00 00 00 	b       10140 <hw_vect20>
	...

00010150 <hw_vect21>:
   10150:	48 00 00 00 	b       10150 <hw_vect21>
	...

00010160 <hw_vect22>:
   10160:	48 00 00 00 	b       10160 <hw_vect22>
	...

00010170 <hw_vect23>:
   10170:	48 00 00 00 	b       10170 <hw_vect23>
	...

00010180 <hw_vect24>:
   10180:	48 00 00 00 	b       10180 <hw_vect24>
	...

00010190 <hw_vect25>:
   10190:	48 00 00 00 	b       10190 <hw_vect25>
	...

000101a0 <hw_vect26>:
   101a0:	48 00 00 00 	b       101a0 <hw_vect26>
	...

000101b0 <hw_vect27>:
   101b0:	48 00 00 00 	b       101b0 <hw_vect27>
	...

000101c0 <hw_vect28>:
   101c0:	48 00 00 00 	b       101c0 <hw_vect28>
	...

000101d0 <hw_vect29>:
   101d0:	48 00 00 00 	b       101d0 <hw_vect29>
	...

000101e0 <hw_vect30>:
   101e0:	48 00 00 00 	b       101e0 <hw_vect30>
	...

000101f0 <hw_vect31>:
   101f0:	48 00 00 00 	b       101f0 <hw_vect31>
	...

00010200 <hw_vect32>:
   10200:	48 00 00 00 	b       10200 <hw_vect32>
	...

00010210 <hw_vect33>:
   10210:	48 00 00 00 	b       10210 <hw_vect33>
	...

00010220 <hw_vect34>:
   10220:	48 00 00 00 	b       10220 <hw_vect34>
	...

00010230 <hw_vect35>:
   10230:	48 00 00 00 	b       10230 <hw_vect35>
	...

00010240 <hw_vect36>:
   10240:	48 00 00 00 	b       10240 <hw_vect36>
	...

00010250 <hw_vect37>:
   10250:	48 00 00 00 	b       10250 <hw_vect37>
	...

00010260 <hw_vect38>:
   10260:	48 00 00 00 	b       10260 <hw_vect38>
	...

00010270 <hw_vect39>:
   10270:	48 00 00 00 	b       10270 <hw_vect39>
	...

00010280 <hw_vect40>:
   10280:	48 00 00 00 	b       10280 <hw_vect40>
	...

00010290 <hw_vect41>:
   10290:	48 00 00 00 	b       10290 <hw_vect41>
	...

000102a0 <hw_vect42>:
   102a0:	48 00 00 00 	b       102a0 <hw_vect42>
	...

000102b0 <hw_vect43>:
   102b0:	48 00 00 00 	b       102b0 <hw_vect43>
	...

000102c0 <hw_vect44>:
   102c0:	48 00 00 00 	b       102c0 <hw_vect44>
	...

000102d0 <hw_vect45>:
   102d0:	48 00 00 00 	b       102d0 <hw_vect45>
	...

000102e0 <hw_vect46>:
   102e0:	48 00 00 00 	b       102e0 <hw_vect46>
	...

000102f0 <hw_vect47>:
   102f0:	48 00 00 00 	b       102f0 <hw_vect47>
	...

00010300 <hw_vect48>:
   10300:	48 00 00 00 	b       10300 <hw_vect48>
	...

00010310 <hw_vect49>:
   10310:	48 00 00 00 	b       10310 <hw_vect49>
	...

00010320 <hw_vect50>:
   10320:	48 00 00 00 	b       10320 <hw_vect50>
	...

00010330 <hw_vect51>:
   10330:	48 00 00 00 	b       10330 <hw_vect51>
	...

00010340 <hw_vect52>:
   10340:	48 00 00 00 	b       10340 <hw_vect52>
	...

00010350 <hw_vect53>:
   10350:	48 00 00 00 	b       10350 <hw_vect53>
	...

00010360 <hw_vect54>:
   10360:	48 00 00 00 	b       10360 <hw_vect54>
	...

00010370 <hw_vect55>:
   10370:	48 00 00 00 	b       10370 <hw_vect55>
	...

00010380 <hw_vect56>:
   10380:	48 00 00 00 	b       10380 <hw_vect56>
	...

00010390 <hw_vect57>:
   10390:	48 00 00 00 	b       10390 <hw_vect57>
	...

000103a0 <hw_vect58>:
   103a0:	48 00 00 00 	b       103a0 <hw_vect58>
	...

000103b0 <hw_vect59>:
   103b0:	48 00 00 00 	b       103b0 <hw_vect59>
	...

000103c0 <hw_vect60>:
   103c0:	48 00 00 00 	b       103c0 <hw_vect60>
	...

000103d0 <hw_vect61>:
   103d0:	48 00 00 00 	b       103d0 <hw_vect61>
	...

000103e0 <hw_vect62>:
   103e0:	48 00 00 00 	b       103e0 <hw_vect62>
	...

000103f0 <hw_vect63>:
   103f0:	48 00 00 00 	b       103f0 <hw_vect63>
	...

00010400 <hw_vect64>:
   10400:	48 00 00 00 	b       10400 <hw_vect64>
	...

00010410 <hw_vect65>:
   10410:	48 00 00 00 	b       10410 <hw_vect65>
	...

00010420 <hw_vect66>:
   10420:	48 00 00 00 	b       10420 <hw_vect66>
	...

00010430 <hw_vect67>:
   10430:	48 00 00 00 	b       10430 <hw_vect67>
	...

00010440 <hw_vect68>:
   10440:	48 00 00 00 	b       10440 <hw_vect68>
	...

00010450 <hw_vect69>:
   10450:	48 00 00 00 	b       10450 <hw_vect69>
	...

00010460 <hw_vect70>:
   10460:	48 00 00 00 	b       10460 <hw_vect70>
	...

00010470 <hw_vect71>:
   10470:	48 00 00 00 	b       10470 <hw_vect71>
	...

00010480 <hw_vect72>:
   10480:	48 00 00 00 	b       10480 <hw_vect72>
	...

00010490 <hw_vect73>:
   10490:	48 00 00 00 	b       10490 <hw_vect73>
	...

000104a0 <hw_vect74>:
   104a0:	48 00 00 00 	b       104a0 <hw_vect74>
	...

000104b0 <hw_vect75>:
   104b0:	48 00 00 00 	b       104b0 <hw_vect75>
	...

000104c0 <hw_vect76>:
   104c0:	48 00 00 00 	b       104c0 <hw_vect76>
	...

000104d0 <hw_vect77>:
   104d0:	48 00 00 00 	b       104d0 <hw_vect77>
	...

000104e0 <hw_vect78>:
   104e0:	48 00 00 00 	b       104e0 <hw_vect78>
	...

000104f0 <hw_vect79>:
   104f0:	48 00 00 00 	b       104f0 <hw_vect79>
	...

00010500 <hw_vect80>:
   10500:	48 00 00 00 	b       10500 <hw_vect80>
	...

00010510 <hw_vect81>:
   10510:	48 00 00 00 	b       10510 <hw_vect81>
	...

00010520 <hw_vect82>:
   10520:	48 00 00 00 	b       10520 <hw_vect82>
	...

00010530 <hw_vect83>:
   10530:	48 00 00 00 	b       10530 <hw_vect83>
	...

00010540 <hw_vect84>:
   10540:	48 00 00 00 	b       10540 <hw_vect84>
	...

00010550 <hw_vect85>:
   10550:	48 00 00 00 	b       10550 <hw_vect85>
	...

00010560 <hw_vect86>:
   10560:	48 00 00 00 	b       10560 <hw_vect86>
	...

00010570 <hw_vect87>:
   10570:	48 00 00 00 	b       10570 <hw_vect87>
	...

00010580 <hw_vect88>:
   10580:	48 00 00 00 	b       10580 <hw_vect88>
	...

00010590 <hw_vect89>:
   10590:	48 00 00 00 	b       10590 <hw_vect89>
	...

000105a0 <hw_vect90>:
   105a0:	48 00 00 00 	b       105a0 <hw_vect90>
	...

000105b0 <hw_vect91>:
   105b0:	48 00 00 00 	b       105b0 <hw_vect91>
	...

000105c0 <hw_vect92>:
   105c0:	48 00 00 00 	b       105c0 <hw_vect92>
	...

000105d0 <hw_vect93>:
   105d0:	48 00 00 00 	b       105d0 <hw_vect93>
	...

000105e0 <hw_vect94>:
   105e0:	48 00 00 00 	b       105e0 <hw_vect94>
	...

000105f0 <hw_vect95>:
   105f0:	48 00 00 00 	b       105f0 <hw_vect95>
	...

00010600 <hw_vect96>:
   10600:	48 00 00 00 	b       10600 <hw_vect96>
	...

00010610 <hw_vect97>:
   10610:	48 00 00 00 	b       10610 <hw_vect97>
	...

00010620 <hw_vect98>:
   10620:	48 00 00 00 	b       10620 <hw_vect98>
	...

00010630 <hw_vect99>:
   10630:	48 00 00 00 	b       10630 <hw_vect99>
	...

00010640 <hw_vect100>:
   10640:	48 00 00 00 	b       10640 <hw_vect100>
	...

00010650 <hw_vect101>:
   10650:	48 00 00 00 	b       10650 <hw_vect101>
	...

00010660 <hw_vect102>:
   10660:	48 00 00 00 	b       10660 <hw_vect102>
	...

00010670 <hw_vect103>:
   10670:	48 00 00 00 	b       10670 <hw_vect103>
	...

00010680 <hw_vect104>:
   10680:	48 00 00 00 	b       10680 <hw_vect104>
	...

00010690 <hw_vect105>:
   10690:	48 00 00 00 	b       10690 <hw_vect105>
	...

000106a0 <hw_vect106>:
   106a0:	48 00 00 00 	b       106a0 <hw_vect106>
	...

000106b0 <hw_vect107>:
   106b0:	48 00 00 00 	b       106b0 <hw_vect107>
	...

000106c0 <hw_vect108>:
   106c0:	48 00 00 00 	b       106c0 <hw_vect108>
	...

000106d0 <hw_vect109>:
   106d0:	48 00 00 00 	b       106d0 <hw_vect109>
	...

000106e0 <hw_vect110>:
   106e0:	48 00 00 00 	b       106e0 <hw_vect110>
	...

000106f0 <hw_vect111>:
   106f0:	48 00 00 00 	b       106f0 <hw_vect111>
	...

00010700 <hw_vect112>:
   10700:	48 00 00 00 	b       10700 <hw_vect112>
	...

00010710 <hw_vect113>:
   10710:	48 00 00 00 	b       10710 <hw_vect113>
	...

00010720 <hw_vect114>:
   10720:	48 00 00 00 	b       10720 <hw_vect114>
	...

00010730 <hw_vect115>:
   10730:	48 00 00 00 	b       10730 <hw_vect115>
	...

00010740 <hw_vect116>:
   10740:	48 00 00 00 	b       10740 <hw_vect116>
	...

00010750 <hw_vect117>:
   10750:	48 00 00 00 	b       10750 <hw_vect117>
	...

00010760 <hw_vect118>:
   10760:	48 00 00 00 	b       10760 <hw_vect118>
	...

00010770 <hw_vect119>:
   10770:	48 00 00 00 	b       10770 <hw_vect119>
	...

00010780 <hw_vect120>:
   10780:	48 00 00 00 	b       10780 <hw_vect120>
	...

00010790 <hw_vect121>:
   10790:	48 00 00 00 	b       10790 <hw_vect121>
	...

000107a0 <hw_vect122>:
   107a0:	48 00 00 00 	b       107a0 <hw_vect122>
	...

000107b0 <hw_vect123>:
   107b0:	48 00 00 00 	b       107b0 <hw_vect123>
	...

000107c0 <hw_vect124>:
   107c0:	48 00 00 00 	b       107c0 <hw_vect124>
	...

000107d0 <hw_vect125>:
   107d0:	48 00 00 00 	b       107d0 <hw_vect125>
	...

000107e0 <hw_vect126>:
   107e0:	48 00 00 00 	b       107e0 <hw_vect126>
	...

000107f0 <hw_vect127>:
   107f0:	48 00 00 00 	b       107f0 <hw_vect127>
	...

00010800 <hw_vect128>:
   10800:	48 00 00 00 	b       10800 <hw_vect128>
	...

00010810 <hw_vect129>:
   10810:	48 00 00 00 	b       10810 <hw_vect129>
	...

00010820 <hw_vect130>:
   10820:	48 00 00 00 	b       10820 <hw_vect130>
	...

00010830 <hw_vect131>:
   10830:	48 00 00 00 	b       10830 <hw_vect131>
	...

00010840 <hw_vect132>:
   10840:	48 00 00 00 	b       10840 <hw_vect132>
	...

00010850 <hw_vect133>:
   10850:	48 00 00 00 	b       10850 <hw_vect133>
	...

00010860 <hw_vect134>:
   10860:	48 00 00 00 	b       10860 <hw_vect134>
	...

00010870 <hw_vect135>:
   10870:	48 00 00 00 	b       10870 <hw_vect135>
	...

00010880 <hw_vect136>:
   10880:	48 00 00 00 	b       10880 <hw_vect136>
	...

00010890 <hw_vect137>:
   10890:	48 00 00 00 	b       10890 <hw_vect137>
	...

000108a0 <hw_vect138>:
   108a0:	48 00 00 00 	b       108a0 <hw_vect138>
	...

000108b0 <hw_vect139>:
   108b0:	48 00 00 00 	b       108b0 <hw_vect139>
	...

000108c0 <hw_vect140>:
   108c0:	48 00 00 00 	b       108c0 <hw_vect140>
	...

000108d0 <hw_vect141>:
   108d0:	48 00 00 00 	b       108d0 <hw_vect141>
	...

000108e0 <hw_vect142>:
   108e0:	48 00 00 00 	b       108e0 <hw_vect142>
	...

000108f0 <hw_vect143>:
   108f0:	48 00 00 00 	b       108f0 <hw_vect143>
	...

00010900 <hw_vect144>:
   10900:	48 00 00 00 	b       10900 <hw_vect144>
	...

00010910 <hw_vect145>:
   10910:	48 00 00 00 	b       10910 <hw_vect145>
	...

00010920 <hw_vect146>:
   10920:	48 00 00 00 	b       10920 <hw_vect146>
	...

00010930 <hw_vect147>:
   10930:	48 00 00 00 	b       10930 <hw_vect147>
	...

00010940 <hw_vect148>:
   10940:	48 00 00 00 	b       10940 <hw_vect148>
	...

00010950 <hw_vect149>:
   10950:	48 00 00 00 	b       10950 <hw_vect149>
	...

00010960 <hw_vect150>:
   10960:	48 00 00 00 	b       10960 <hw_vect150>
	...

00010970 <hw_vect151>:
   10970:	48 00 00 00 	b       10970 <hw_vect151>
	...

00010980 <hw_vect152>:
   10980:	48 00 00 00 	b       10980 <hw_vect152>
	...

00010990 <hw_vect153>:
   10990:	48 00 00 00 	b       10990 <hw_vect153>
	...

000109a0 <hw_vect154>:
   109a0:	48 00 00 00 	b       109a0 <hw_vect154>
	...

000109b0 <hw_vect155>:
   109b0:	48 00 00 00 	b       109b0 <hw_vect155>
	...

000109c0 <hw_vect156>:
   109c0:	48 00 00 00 	b       109c0 <hw_vect156>
	...

000109d0 <hw_vect157>:
   109d0:	48 00 07 54 	b       11124 <eTimer00IntHandler>
	...

000109e0 <hw_vect158>:
   109e0:	48 00 07 50 	b       11130 <eTimer01IntHandler>
	...

000109f0 <hw_vect159>:
   109f0:	48 00 07 4c 	b       1113c <eTimer02IntHandler>
	...

00010a00 <hw_vect160>:
   10a00:	48 00 00 00 	b       10a00 <hw_vect160>
	...

00010a10 <hw_vect161>:
   10a10:	48 00 00 00 	b       10a10 <hw_vect161>
	...

00010a20 <hw_vect162>:
   10a20:	48 00 00 00 	b       10a20 <hw_vect162>
	...

00010a30 <hw_vect163>:
   10a30:	48 00 00 00 	b       10a30 <hw_vect163>
	...

00010a40 <hw_vect164>:
   10a40:	48 00 00 00 	b       10a40 <hw_vect164>
	...

00010a50 <hw_vect165>:
   10a50:	48 00 00 00 	b       10a50 <hw_vect165>
	...

00010a60 <hw_vect166>:
   10a60:	48 00 00 00 	b       10a60 <hw_vect166>
	...

00010a70 <hw_vect167>:
   10a70:	48 00 00 00 	b       10a70 <hw_vect167>
	...

00010a80 <hw_vect168>:
   10a80:	48 00 00 00 	b       10a80 <hw_vect168>
	...

00010a90 <hw_vect169>:
   10a90:	48 00 00 00 	b       10a90 <hw_vect169>
	...

00010aa0 <hw_vect170>:
   10aa0:	48 00 00 00 	b       10aa0 <hw_vect170>
	...

00010ab0 <hw_vect171>:
   10ab0:	48 00 00 00 	b       10ab0 <hw_vect171>
	...

00010ac0 <hw_vect172>:
   10ac0:	48 00 00 00 	b       10ac0 <hw_vect172>
	...

00010ad0 <hw_vect173>:
   10ad0:	48 00 00 00 	b       10ad0 <hw_vect173>
	...

00010ae0 <hw_vect174>:
   10ae0:	48 00 00 00 	b       10ae0 <hw_vect174>
	...

00010af0 <hw_vect175>:
   10af0:	48 00 00 00 	b       10af0 <hw_vect175>
	...

00010b00 <hw_vect176>:
   10b00:	48 00 00 00 	b       10b00 <hw_vect176>
	...

00010b10 <hw_vect177>:
   10b10:	48 00 00 00 	b       10b10 <hw_vect177>
	...

00010b20 <hw_vect178>:
   10b20:	48 00 00 00 	b       10b20 <hw_vect178>
	...

00010b30 <hw_vect179>:
   10b30:	48 00 00 00 	b       10b30 <hw_vect179>
	...

00010b40 <hw_vect180>:
   10b40:	48 00 00 00 	b       10b40 <hw_vect180>
	...

00010b50 <hw_vect181>:
   10b50:	48 00 00 00 	b       10b50 <hw_vect181>
	...

00010b60 <hw_vect182>:
   10b60:	48 00 00 00 	b       10b60 <hw_vect182>
	...

00010b70 <hw_vect183>:
   10b70:	48 00 00 00 	b       10b70 <hw_vect183>
	...

00010b80 <hw_vect184>:
   10b80:	48 00 00 00 	b       10b80 <hw_vect184>
	...

00010b90 <hw_vect185>:
   10b90:	48 00 00 00 	b       10b90 <hw_vect185>
	...

00010ba0 <hw_vect186>:
   10ba0:	48 00 00 00 	b       10ba0 <hw_vect186>
	...

00010bb0 <hw_vect187>:
   10bb0:	48 00 00 00 	b       10bb0 <hw_vect187>
	...

00010bc0 <hw_vect188>:
   10bc0:	48 00 00 00 	b       10bc0 <hw_vect188>
	...

00010bd0 <hw_vect189>:
   10bd0:	48 00 00 00 	b       10bd0 <hw_vect189>
	...

00010be0 <hw_vect190>:
   10be0:	48 00 00 00 	b       10be0 <hw_vect190>
	...

00010bf0 <hw_vect191>:
   10bf0:	48 00 00 00 	b       10bf0 <hw_vect191>
	...

00010c00 <hw_vect192>:
   10c00:	48 00 00 00 	b       10c00 <hw_vect192>
	...

00010c10 <hw_vect193>:
   10c10:	48 00 00 00 	b       10c10 <hw_vect193>
	...

00010c20 <hw_vect194>:
   10c20:	48 00 00 00 	b       10c20 <hw_vect194>
	...

00010c30 <hw_vect195>:
   10c30:	48 00 00 00 	b       10c30 <hw_vect195>
	...

00010c40 <hw_vect196>:
   10c40:	48 00 00 00 	b       10c40 <hw_vect196>
	...

00010c50 <hw_vect197>:
   10c50:	48 00 00 00 	b       10c50 <hw_vect197>
	...

00010c60 <hw_vect198>:
   10c60:	48 00 00 00 	b       10c60 <hw_vect198>
	...

00010c70 <hw_vect199>:
   10c70:	48 00 00 00 	b       10c70 <hw_vect199>
	...

00010c80 <hw_vect200>:
   10c80:	48 00 00 00 	b       10c80 <hw_vect200>
	...

00010c90 <hw_vect201>:
   10c90:	48 00 00 00 	b       10c90 <hw_vect201>
	...

00010ca0 <hw_vect202>:
   10ca0:	48 00 00 00 	b       10ca0 <hw_vect202>
	...

00010cb0 <hw_vect203>:
   10cb0:	48 00 00 00 	b       10cb0 <hw_vect203>
	...

00010cc0 <hw_vect204>:
   10cc0:	48 00 00 00 	b       10cc0 <hw_vect204>
	...

00010cd0 <hw_vect205>:
   10cd0:	48 00 00 00 	b       10cd0 <hw_vect205>
	...

00010ce0 <hw_vect206>:
   10ce0:	48 00 00 00 	b       10ce0 <hw_vect206>
	...

00010cf0 <hw_vect207>:
   10cf0:	48 00 00 00 	b       10cf0 <hw_vect207>
	...

00010d00 <hw_vect208>:
   10d00:	48 00 00 00 	b       10d00 <hw_vect208>
	...

00010d10 <hw_vect209>:
   10d10:	48 00 00 00 	b       10d10 <hw_vect209>
	...

00010d20 <hw_vect210>:
   10d20:	48 00 00 00 	b       10d20 <hw_vect210>
	...

00010d30 <hw_vect211>:
   10d30:	48 00 00 00 	b       10d30 <hw_vect211>
	...

00010d40 <hw_vect212>:
   10d40:	48 00 00 00 	b       10d40 <hw_vect212>
	...

00010d50 <hw_vect213>:
   10d50:	48 00 00 00 	b       10d50 <hw_vect213>
	...

00010d60 <hw_vect214>:
   10d60:	48 00 00 00 	b       10d60 <hw_vect214>
	...

00010d70 <hw_vect215>:
   10d70:	48 00 00 00 	b       10d70 <hw_vect215>
	...

00010d80 <hw_vect216>:
   10d80:	48 00 00 00 	b       10d80 <hw_vect216>
	...

00010d90 <hw_vect217>:
   10d90:	48 00 00 00 	b       10d90 <hw_vect217>
	...

00010da0 <hw_vect218>:
   10da0:	48 00 00 00 	b       10da0 <hw_vect218>
	...

00010db0 <hw_vect219>:
   10db0:	48 00 00 00 	b       10db0 <hw_vect219>
	...

00010dc0 <hw_vect220>:
   10dc0:	48 00 00 00 	b       10dc0 <hw_vect220>
	...

00010dd0 <hw_vect221>:
   10dd0:	48 00 00 00 	b       10dd0 <hw_vect221>
	...

00010de0 <hw_vect222>:
   10de0:	48 00 00 00 	b       10de0 <hw_vect222>
	...

00010df0 <hw_vect223>:
   10df0:	48 00 00 00 	b       10df0 <hw_vect223>
	...

00010e00 <hw_vect224>:
   10e00:	48 00 00 00 	b       10e00 <hw_vect224>
	...

00010e10 <hw_vect225>:
   10e10:	48 00 00 00 	b       10e10 <hw_vect225>
	...

00010e20 <hw_vect226>:
   10e20:	48 00 00 00 	b       10e20 <hw_vect226>
	...

00010e30 <hw_vect227>:
   10e30:	48 00 00 00 	b       10e30 <hw_vect227>
	...

00010e40 <hw_vect228>:
   10e40:	48 00 00 00 	b       10e40 <hw_vect228>
	...

00010e50 <hw_vect229>:
   10e50:	48 00 00 00 	b       10e50 <hw_vect229>
	...

00010e60 <hw_vect230>:
   10e60:	48 00 00 00 	b       10e60 <hw_vect230>
	...

00010e70 <hw_vect231>:
   10e70:	48 00 00 00 	b       10e70 <hw_vect231>
	...

00010e80 <hw_vect232>:
   10e80:	48 00 00 00 	b       10e80 <hw_vect232>
	...

00010e90 <hw_vect233>:
   10e90:	48 00 00 00 	b       10e90 <hw_vect233>
	...

00010ea0 <hw_vect234>:
   10ea0:	48 00 00 00 	b       10ea0 <hw_vect234>
	...

00010eb0 <hw_vect235>:
   10eb0:	48 00 00 00 	b       10eb0 <hw_vect235>
	...

00010ec0 <hw_vect236>:
   10ec0:	48 00 00 00 	b       10ec0 <hw_vect236>
	...

00010ed0 <hw_vect237>:
   10ed0:	48 00 00 00 	b       10ed0 <hw_vect237>
	...

00010ee0 <hw_vect238>:
   10ee0:	48 00 00 00 	b       10ee0 <hw_vect238>
	...

00010ef0 <hw_vect239>:
   10ef0:	48 00 00 00 	b       10ef0 <hw_vect239>
	...

00010f00 <hw_vect240>:
   10f00:	48 00 00 00 	b       10f00 <hw_vect240>
	...

00010f10 <hw_vect241>:
   10f10:	48 00 00 00 	b       10f10 <hw_vect241>
	...

00010f20 <hw_vect242>:
   10f20:	48 00 00 00 	b       10f20 <hw_vect242>
	...

00010f30 <hw_vect243>:
   10f30:	48 00 00 00 	b       10f30 <hw_vect243>
	...

00010f40 <hw_vect244>:
   10f40:	48 00 00 00 	b       10f40 <hw_vect244>
	...

00010f50 <hw_vect245>:
   10f50:	48 00 00 00 	b       10f50 <hw_vect245>
	...

00010f60 <hw_vect246>:
   10f60:	48 00 00 00 	b       10f60 <hw_vect246>
	...

00010f70 <hw_vect247>:
   10f70:	48 00 00 00 	b       10f70 <hw_vect247>
	...

00010f80 <hw_vect248>:
   10f80:	48 00 00 00 	b       10f80 <hw_vect248>
	...

00010f90 <hw_vect249>:
   10f90:	48 00 00 00 	b       10f90 <hw_vect249>
	...

00010fa0 <hw_vect250>:
   10fa0:	48 00 00 00 	b       10fa0 <hw_vect250>
	...

00010fb0 <hw_vect251>:
   10fb0:	48 00 00 00 	b       10fb0 <hw_vect251>
	...

00010fc0 <hw_vect252>:
   10fc0:	48 00 00 00 	b       10fc0 <hw_vect252>
	...

00010fd0 <hw_vect253>:
   10fd0:	48 00 00 00 	b       10fd0 <hw_vect253>
	...

00010fe0 <hw_vect254>:
   10fe0:	48 00 00 00 	b       10fe0 <hw_vect254>
	...

00010ff0 <hw_vect255>:
   10ff0:	48 00 00 00 	b       10ff0 <hw_vect255>
	...

00011000 <_trap_table>:
   11000:	48 00 00 00 	b       11000 <_trap_table>
	...

00011010 <IVOR1trap>:
   11010:	48 00 00 00 	b       11010 <IVOR1trap>
	...

00011020 <IVOR2trap>:
   11020:	48 00 00 00 	b       11020 <IVOR2trap>
	...

00011030 <IVOR3trap>:
   11030:	48 00 00 00 	b       11030 <IVOR3trap>
	...

00011040 <IVOR4trap>:
   11040:	48 00 00 00 	b       11040 <IVOR4trap>
	...

00011050 <IVOR5trap>:
   11050:	48 00 00 00 	b       11050 <IVOR5trap>
	...

00011060 <IVOR6trap>:
   11060:	48 00 00 00 	b       11060 <IVOR6trap>
	...

00011070 <IVOR7trap>:
   11070:	48 00 00 00 	b       11070 <IVOR7trap>
	...

00011080 <IVOR8trap>:
   11080:	48 00 00 00 	b       11080 <IVOR8trap>
	...

00011090 <IVOR9trap>:
   11090:	48 00 00 00 	b       11090 <IVOR9trap>
	...

000110a0 <IVOR10trap>:
   110a0:	48 00 00 00 	b       110a0 <IVOR10trap>
	...

000110b0 <IVOR11trap>:
   110b0:	48 00 00 00 	b       110b0 <IVOR11trap>
	...

000110c0 <IVOR12trap>:
   110c0:	48 00 00 00 	b       110c0 <IVOR12trap>
	...

000110d0 <IVOR13trap>:
   110d0:	48 00 00 00 	b       110d0 <IVOR13trap>
	...

000110e0 <IVOR14trap>:
   110e0:	48 00 00 00 	b       110e0 <IVOR14trap>
	...

000110f0 <IVOR15trap>:
   110f0:	48 00 00 00 	b       110f0 <IVOR15trap>
	...

00011100 <IVOR32trap>:
   11100:	48 00 00 00 	b       11100 <IVOR32trap>
	...

00011110 <IVOR33trap>:
   11110:	48 00 00 00 	b       11110 <IVOR33trap>
	...

00011120 <IVOR34trap>:
   11120:	48 00 00 00 	b       11120 <IVOR34trap>

Disassembly of section .text:

00011124 <eTimer00IntHandler>:
   11124:	48 00 00 31 	bl      11154 <interrupt_prolog>
   11128:	48 00 38 31 	bl      14958 <etimer00ISR>
   1112c:	48 00 00 90 	b       111bc <interrupt_epilog>

00011130 <eTimer01IntHandler>:
   11130:	48 00 00 25 	bl      11154 <interrupt_prolog>
   11134:	48 00 39 91 	bl      14ac4 <etimer01ISR>
   11138:	48 00 00 84 	b       111bc <interrupt_epilog>

0001113c <eTimer02IntHandler>:
   1113c:	48 00 00 19 	bl      11154 <interrupt_prolog>
   11140:	48 00 3a 7d 	bl      14bbc <etimer02ISR>
   11144:	48 00 00 78 	b       111bc <interrupt_epilog>

00011148 <SwIrq3Handler>:
   11148:	48 00 00 0d 	bl      11154 <interrupt_prolog>
   1114c:	48 00 3b 69 	bl      14cb4 <SwIrq3ISR>
   11150:	48 00 00 6c 	b       111bc <interrupt_epilog>

00011154 <interrupt_prolog>:
   11154:	94 21 ff b0 	stwu    r1,-80(r1)
   11158:	90 61 00 28 	stw     r3,40(r1)
   1115c:	7c 7a 02 a6 	mfsrr0  r3
   11160:	90 61 00 0c 	stw     r3,12(r1)
   11164:	7c 7b 02 a6 	mfsrr1  r3
   11168:	90 61 00 10 	stw     r3,16(r1)
   1116c:	7c 00 81 46 	.long 0x7c008146
   11170:	91 81 00 4c 	stw     r12,76(r1)
   11174:	91 61 00 48 	stw     r11,72(r1)
   11178:	91 41 00 44 	stw     r10,68(r1)
   1117c:	91 21 00 40 	stw     r9,64(r1)
   11180:	91 01 00 3c 	stw     r8,60(r1)
   11184:	90 e1 00 38 	stw     r7,56(r1)
   11188:	90 c1 00 34 	stw     r6,52(r1)
   1118c:	90 a1 00 30 	stw     r5,48(r1)
   11190:	90 81 00 2c 	stw     r4,44(r1)
   11194:	90 01 00 24 	stw     r0,36(r1)
   11198:	7c 60 00 26 	mfcr    r3
   1119c:	90 61 00 20 	stw     r3,32(r1)
   111a0:	7c 61 02 a6 	mfxer   r3
   111a4:	90 61 00 1c 	stw     r3,28(r1)
   111a8:	7c 69 02 a6 	mfctr   r3
   111ac:	90 61 00 18 	stw     r3,24(r1)
   111b0:	7c 68 02 a6 	mflr    r3
   111b4:	90 61 00 14 	stw     r3,20(r1)
   111b8:	4e 80 00 20 	blr

000111bc <interrupt_epilog>:
   111bc:	80 61 00 14 	lwz     r3,20(r1)
   111c0:	7c 68 03 a6 	mtlr    r3
   111c4:	80 61 00 18 	lwz     r3,24(r1)
   111c8:	7c 69 03 a6 	mtctr   r3
   111cc:	80 61 00 1c 	lwz     r3,28(r1)
   111d0:	7c 61 03 a6 	mtxer   r3
   111d4:	80 61 00 20 	lwz     r3,32(r1)
   111d8:	7c 6f f1 20 	mtcr    r3
   111dc:	80 01 00 24 	lwz     r0,36(r1)
   111e0:	80 a1 00 30 	lwz     r5,48(r1)
   111e4:	80 c1 00 34 	lwz     r6,52(r1)
   111e8:	80 e1 00 38 	lwz     r7,56(r1)
   111ec:	81 01 00 3c 	lwz     r8,60(r1)
   111f0:	81 21 00 40 	lwz     r9,64(r1)
   111f4:	81 41 00 44 	lwz     r10,68(r1)
   111f8:	81 61 00 48 	lwz     r11,72(r1)
   111fc:	81 81 00 4c 	lwz     r12,76(r1)
   11200:	7c 00 06 ac 	eieio
   11204:	3c 60 ff f5 	lis     r3,-11
   11208:	38 80 00 00 	li      r4,0
   1120c:	7c 00 01 46 	.long 0x7c000146
   11210:	90 83 80 18 	stw     r4,-32744(r3)
   11214:	80 61 00 0c 	lwz     r3,12(r1)
   11218:	7c 7a 03 a6 	mtsrr0  r3
   1121c:	80 61 00 10 	lwz     r3,16(r1)
   11220:	7c 7b 03 a6 	mtsrr1  r3
   11224:	80 81 00 2c 	lwz     r4,44(r1)
   11228:	80 61 00 28 	lwz     r3,40(r1)
   1122c:	38 21 00 50 	addi    r1,r1,80
   11230:	4c 00 00 64 	rfi

00011234 <__fixunsdfsi>:
   11234:	7c 08 02 a6 	mflr    r0
   11238:	94 21 ff e0 	stwu    r1,-32(r1)
   1123c:	3c a0 41 e0 	lis     r5,16864
   11240:	38 c0 00 00 	li      r6,0
   11244:	93 81 00 10 	stw     r28,16(r1)
   11248:	93 a1 00 14 	stw     r29,20(r1)
   1124c:	90 01 00 24 	stw     r0,36(r1)
   11250:	93 c1 00 18 	stw     r30,24(r1)
   11254:	7c 9d 23 78 	mr      r29,r4
   11258:	7c 7c 1b 78 	mr      r28,r3
   1125c:	48 00 0a 91 	bl      11cec <__gedf2>
   11260:	2f 83 00 00 	cmpwi   cr7,r3,0
   11264:	40 9c 00 2c 	bge-    cr7,11290 <__fixunsdfsi+0x5c>
   11268:	7f 83 e3 78 	mr      r3,r28
   1126c:	7f a4 eb 78 	mr      r4,r29
   11270:	48 00 0c 19 	bl      11e88 <__fixdfsi>
   11274:	80 01 00 24 	lwz     r0,36(r1)
   11278:	83 81 00 10 	lwz     r28,16(r1)
   1127c:	7c 08 03 a6 	mtlr    r0
   11280:	83 a1 00 14 	lwz     r29,20(r1)
   11284:	83 c1 00 18 	lwz     r30,24(r1)
   11288:	38 21 00 20 	addi    r1,r1,32
   1128c:	4e 80 00 20 	blr
   11290:	3c a0 41 e0 	lis     r5,16864
   11294:	38 c0 00 00 	li      r6,0
   11298:	7f 83 e3 78 	mr      r3,r28
   1129c:	7f a4 eb 78 	mr      r4,r29
   112a0:	48 00 04 51 	bl      116f0 <__subdf3>
   112a4:	48 00 0b e5 	bl      11e88 <__fixdfsi>
   112a8:	80 01 00 24 	lwz     r0,36(r1)
   112ac:	83 81 00 10 	lwz     r28,16(r1)
   112b0:	7c 08 03 a6 	mtlr    r0
   112b4:	83 a1 00 14 	lwz     r29,20(r1)
   112b8:	83 c1 00 18 	lwz     r30,24(r1)
   112bc:	3c 63 80 00 	addis   r3,r3,-32768
   112c0:	38 21 00 20 	addi    r1,r1,32
   112c4:	4e 80 00 20 	blr
   112c8:	3f ff 6d 28 	addis   r31,r31,27944

000112cc <_fpadd_parts>:
   112cc:	7c 08 02 a6 	mflr    r0
   112d0:	94 21 ff e0 	stwu    r1,-32(r1)
   112d4:	42 9f 00 05 	bcl-    20,4*cr7+so,112d8 <_fpadd_parts+0xc>
   112d8:	93 c1 00 18 	stw     r30,24(r1)
   112dc:	90 01 00 24 	stw     r0,36(r1)
   112e0:	7f c8 02 a6 	mflr    r30
   112e4:	81 23 00 00 	lwz     r9,0(r3)
   112e8:	93 81 00 10 	stw     r28,16(r1)
   112ec:	2b 89 00 01 	cmplwi  cr7,r9,1
   112f0:	80 1e ff f0 	lwz     r0,-16(r30)
   112f4:	93 a1 00 14 	stw     r29,20(r1)
   112f8:	93 e1 00 1c 	stw     r31,28(r1)
   112fc:	7f c0 f2 14 	add     r30,r0,r30
   11300:	40 9d 01 b8 	ble-    cr7,114b8 <_fpadd_parts+0x1ec>
   11304:	81 44 00 00 	lwz     r10,0(r4)
   11308:	2b 8a 00 01 	cmplwi  cr7,r10,1
   1130c:	40 9d 02 70 	ble-    cr7,1157c <_fpadd_parts+0x2b0>
   11310:	2f 89 00 04 	cmpwi   cr7,r9,4
   11314:	41 9e 03 64 	beq-    cr7,11678 <_fpadd_parts+0x3ac>
   11318:	2f 8a 00 04 	cmpwi   cr7,r10,4
   1131c:	41 9e 02 60 	beq-    cr7,1157c <_fpadd_parts+0x2b0>
   11320:	2f 8a 00 02 	cmpwi   cr7,r10,2
   11324:	41 9e 01 f0 	beq-    cr7,11514 <_fpadd_parts+0x248>
   11328:	2f 89 00 02 	cmpwi   cr7,r9,2
   1132c:	41 9e 02 50 	beq-    cr7,1157c <_fpadd_parts+0x2b0>
   11330:	80 03 00 08 	lwz     r0,8(r3)
   11334:	81 44 00 08 	lwz     r10,8(r4)
   11338:	80 c3 00 10 	lwz     r6,16(r3)
   1133c:	7d 6a 00 50 	subf    r11,r10,r0
   11340:	7d 69 fe 70 	srawi   r9,r11,31
   11344:	7d 2c 5a 78 	xor     r12,r9,r11
   11348:	7d 89 60 50 	subf    r12,r9,r12
   1134c:	2f 8c 00 3f 	cmpwi   cr7,r12,63
   11350:	80 e3 00 14 	lwz     r7,20(r3)
   11354:	81 04 00 10 	lwz     r8,16(r4)
   11358:	81 24 00 14 	lwz     r9,20(r4)
   1135c:	41 9d 01 7c 	bgt-    cr7,114d8 <_fpadd_parts+0x20c>
   11360:	2f 8b 00 00 	cmpwi   cr7,r11,0
   11364:	40 9d 02 5c 	ble-    cr7,115c0 <_fpadd_parts+0x2f4>
   11368:	37 ec ff e0 	addic.  r31,r12,-32
   1136c:	41 80 02 ac 	blt-    11618 <_fpadd_parts+0x34c>
   11370:	7d 1d fc 30 	srw     r29,r8,r31
   11374:	3b 80 00 00 	li      r28,0
   11378:	2f 9f 00 00 	cmpwi   cr7,r31,0
   1137c:	39 40 00 00 	li      r10,0
   11380:	41 9c 02 b4 	blt-    cr7,11634 <_fpadd_parts+0x368>
   11384:	39 80 00 01 	li      r12,1
   11388:	7d 8a f8 30 	slw     r10,r12,r31
   1138c:	39 60 00 00 	li      r11,0
   11390:	31 6b ff ff 	addic   r11,r11,-1
   11394:	7d 4a 01 d4 	addme   r10,r10
   11398:	7d 5f 40 38 	and     r31,r10,r8
   1139c:	7d 6a 48 38 	and     r10,r11,r9
   113a0:	7f eb 53 78 	or      r11,r31,r10
   113a4:	31 2b ff ff 	addic   r9,r11,-1
   113a8:	7d 49 59 10 	subfe   r10,r9,r11
   113ac:	7f 88 e3 78 	mr      r8,r28
   113b0:	7d 49 eb 78 	or      r9,r10,r29
   113b4:	80 63 00 04 	lwz     r3,4(r3)
   113b8:	81 44 00 04 	lwz     r10,4(r4)
   113bc:	7f 83 50 00 	cmpw    cr7,r3,r10
   113c0:	41 9e 01 38 	beq-    cr7,114f8 <_fpadd_parts+0x22c>
   113c4:	2f 83 00 00 	cmpwi   cr7,r3,0
   113c8:	7d 69 38 10 	subfc   r11,r9,r7
   113cc:	7d 48 31 10 	subfe   r10,r8,r6
   113d0:	41 9e 00 0c 	beq-    cr7,113dc <_fpadd_parts+0x110>
   113d4:	7d 67 48 10 	subfc   r11,r7,r9
   113d8:	7d 46 41 10 	subfe   r10,r6,r8
   113dc:	2f 8a 00 00 	cmpwi   cr7,r10,0
   113e0:	41 9c 01 c0 	blt-    cr7,115a0 <_fpadd_parts+0x2d4>
   113e4:	39 20 00 00 	li      r9,0
   113e8:	91 25 00 04 	stw     r9,4(r5)
   113ec:	90 05 00 08 	stw     r0,8(r5)
   113f0:	91 45 00 10 	stw     r10,16(r5)
   113f4:	91 65 00 14 	stw     r11,20(r5)
   113f8:	3c e0 0f ff 	lis     r7,4095
   113fc:	31 2b ff ff 	addic   r9,r11,-1
   11400:	7d 0a 01 d4 	addme   r8,r10
   11404:	60 e7 ff ff 	ori     r7,r7,65535
   11408:	7f 88 38 40 	cmplw   cr7,r8,r7
   1140c:	41 9d 00 64 	bgt-    cr7,11470 <_fpadd_parts+0x1a4>
   11410:	7f 88 38 00 	cmpw    cr7,r8,r7
   11414:	41 9e 02 2c 	beq-    cr7,11640 <_fpadd_parts+0x374>
   11418:	80 e5 00 08 	lwz     r7,8(r5)
   1141c:	3c c0 0f ff 	lis     r6,4095
   11420:	38 e7 ff ff 	addi    r7,r7,-1
   11424:	60 c6 ff ff 	ori     r6,r6,65535
   11428:	38 60 ff fe 	li      r3,-2
   1142c:	48 00 00 08 	b       11434 <_fpadd_parts+0x168>
   11430:	41 9a 01 40 	beq-    cr6,11570 <_fpadd_parts+0x2a4>
   11434:	55 64 0f fe 	rlwinm  r4,r11,1,31,31
   11438:	55 48 08 3c 	rlwinm  r8,r10,1,0,30
   1143c:	55 69 08 3c 	rlwinm  r9,r11,1,0,30
   11440:	7c 8a 43 78 	or      r10,r4,r8
   11444:	7d 2b 4b 78 	mr      r11,r9
   11448:	31 2b ff ff 	addic   r9,r11,-1
   1144c:	7d 0a 01 d4 	addme   r8,r10
   11450:	7f 88 30 40 	cmplw   cr7,r8,r6
   11454:	7c e4 3b 78 	mr      r4,r7
   11458:	7f 08 30 00 	cmpw    cr6,r8,r6
   1145c:	38 e7 ff ff 	addi    r7,r7,-1
   11460:	40 9d ff d0 	ble+    cr7,11430 <_fpadd_parts+0x164>
   11464:	91 45 00 10 	stw     r10,16(r5)
   11468:	91 65 00 14 	stw     r11,20(r5)
   1146c:	90 85 00 08 	stw     r4,8(r5)
   11470:	3d 20 1f ff 	lis     r9,8191
   11474:	61 29 ff ff 	ori     r9,r9,65535
   11478:	7f 8a 48 40 	cmplw   cr7,r10,r9
   1147c:	39 20 00 03 	li      r9,3
   11480:	91 25 00 00 	stw     r9,0(r5)
   11484:	40 9d 00 30 	ble-    cr7,114b4 <_fpadd_parts+0x1e8>
   11488:	81 05 00 08 	lwz     r8,8(r5)
   1148c:	55 46 f8 00 	rlwinm  r6,r10,31,0,0
   11490:	55 69 f8 7e 	rlwinm  r9,r11,31,1,31
   11494:	55 67 07 fe 	clrlwi  r7,r11,31
   11498:	7c c9 4b 78 	or      r9,r6,r9
   1149c:	55 4a f8 7e 	rlwinm  r10,r10,31,1,31
   114a0:	7c e9 4b 78 	or      r9,r7,r9
   114a4:	39 08 00 01 	addi    r8,r8,1
   114a8:	91 45 00 10 	stw     r10,16(r5)
   114ac:	91 25 00 14 	stw     r9,20(r5)
   114b0:	91 05 00 08 	stw     r8,8(r5)
   114b4:	7c a3 2b 78 	mr      r3,r5
   114b8:	80 01 00 24 	lwz     r0,36(r1)
   114bc:	83 81 00 10 	lwz     r28,16(r1)
   114c0:	7c 08 03 a6 	mtlr    r0
   114c4:	83 a1 00 14 	lwz     r29,20(r1)
   114c8:	83 c1 00 18 	lwz     r30,24(r1)
   114cc:	83 e1 00 1c 	lwz     r31,28(r1)
   114d0:	38 21 00 20 	addi    r1,r1,32
   114d4:	4e 80 00 20 	blr
   114d8:	7f 80 50 00 	cmpw    cr7,r0,r10
   114dc:	40 9d 00 84 	ble-    cr7,11560 <_fpadd_parts+0x294>
   114e0:	80 63 00 04 	lwz     r3,4(r3)
   114e4:	81 44 00 04 	lwz     r10,4(r4)
   114e8:	39 00 00 00 	li      r8,0
   114ec:	7f 83 50 00 	cmpw    cr7,r3,r10
   114f0:	39 20 00 00 	li      r9,0
   114f4:	40 9e fe d0 	bne+    cr7,113c4 <_fpadd_parts+0xf8>
   114f8:	7d 69 38 14 	addc    r11,r9,r7
   114fc:	7d 48 31 14 	adde    r10,r8,r6
   11500:	90 65 00 04 	stw     r3,4(r5)
   11504:	90 05 00 08 	stw     r0,8(r5)
   11508:	91 45 00 10 	stw     r10,16(r5)
   1150c:	91 65 00 14 	stw     r11,20(r5)
   11510:	4b ff ff 60 	b       11470 <_fpadd_parts+0x1a4>
   11514:	2f 89 00 02 	cmpwi   cr7,r9,2
   11518:	40 9e ff a0 	bne+    cr7,114b8 <_fpadd_parts+0x1ec>
   1151c:	81 43 00 04 	lwz     r10,4(r3)
   11520:	80 e3 00 08 	lwz     r7,8(r3)
   11524:	81 03 00 0c 	lwz     r8,12(r3)
   11528:	91 45 00 04 	stw     r10,4(r5)
   1152c:	91 25 00 00 	stw     r9,0(r5)
   11530:	90 e5 00 08 	stw     r7,8(r5)
   11534:	91 05 00 0c 	stw     r8,12(r5)
   11538:	81 43 00 04 	lwz     r10,4(r3)
   1153c:	80 e4 00 04 	lwz     r7,4(r4)
   11540:	81 03 00 10 	lwz     r8,16(r3)
   11544:	81 23 00 14 	lwz     r9,20(r3)
   11548:	7c ea 50 38 	and     r10,r7,r10
   1154c:	91 05 00 10 	stw     r8,16(r5)
   11550:	91 25 00 14 	stw     r9,20(r5)
   11554:	91 45 00 04 	stw     r10,4(r5)
   11558:	7c a3 2b 78 	mr      r3,r5
   1155c:	4b ff ff 5c 	b       114b8 <_fpadd_parts+0x1ec>
   11560:	7d 40 53 78 	mr      r0,r10
   11564:	38 c0 00 00 	li      r6,0
   11568:	38 e0 00 00 	li      r7,0
   1156c:	4b ff fe 48 	b       113b4 <_fpadd_parts+0xe8>
   11570:	7f 89 18 40 	cmplw   cr7,r9,r3
   11574:	40 9d fe c0 	ble+    cr7,11434 <_fpadd_parts+0x168>
   11578:	4b ff fe ec 	b       11464 <_fpadd_parts+0x198>
   1157c:	80 01 00 24 	lwz     r0,36(r1)
   11580:	83 81 00 10 	lwz     r28,16(r1)
   11584:	7c 08 03 a6 	mtlr    r0
   11588:	83 a1 00 14 	lwz     r29,20(r1)
   1158c:	83 c1 00 18 	lwz     r30,24(r1)
   11590:	83 e1 00 1c 	lwz     r31,28(r1)
   11594:	7c 83 23 78 	mr      r3,r4
   11598:	38 21 00 20 	addi    r1,r1,32
   1159c:	4e 80 00 20 	blr
   115a0:	21 6b 00 00 	subfic  r11,r11,0
   115a4:	7d 4a 01 90 	subfze  r10,r10
   115a8:	90 05 00 08 	stw     r0,8(r5)
   115ac:	39 20 00 01 	li      r9,1
   115b0:	91 25 00 04 	stw     r9,4(r5)
   115b4:	91 45 00 10 	stw     r10,16(r5)
   115b8:	91 65 00 14 	stw     r11,20(r5)
   115bc:	4b ff fe 3c 	b       113f8 <_fpadd_parts+0x12c>
   115c0:	41 9e fd f4 	beq+    cr7,113b4 <_fpadd_parts+0xe8>
   115c4:	37 ec ff e0 	addic.  r31,r12,-32
   115c8:	7c 00 62 14 	add     r0,r0,r12
   115cc:	41 80 00 90 	blt-    1165c <_fpadd_parts+0x390>
   115d0:	7c dd fc 30 	srw     r29,r6,r31
   115d4:	3b 80 00 00 	li      r28,0
   115d8:	2f 9f 00 00 	cmpwi   cr7,r31,0
   115dc:	39 40 00 00 	li      r10,0
   115e0:	41 9c 00 70 	blt-    cr7,11650 <_fpadd_parts+0x384>
   115e4:	39 80 00 01 	li      r12,1
   115e8:	7d 8a f8 30 	slw     r10,r12,r31
   115ec:	39 60 00 00 	li      r11,0
   115f0:	31 6b ff ff 	addic   r11,r11,-1
   115f4:	7d 4a 01 d4 	addme   r10,r10
   115f8:	7d 5f 30 38 	and     r31,r10,r6
   115fc:	7d 6a 38 38 	and     r10,r11,r7
   11600:	7f eb 53 78 	or      r11,r31,r10
   11604:	30 eb ff ff 	addic   r7,r11,-1
   11608:	7d 47 59 10 	subfe   r10,r7,r11
   1160c:	7f 86 e3 78 	mr      r6,r28
   11610:	7d 47 eb 78 	or      r7,r10,r29
   11614:	4b ff fd a0 	b       113b4 <_fpadd_parts+0xe8>
   11618:	55 0b 08 3c 	rlwinm  r11,r8,1,0,30
   1161c:	21 4c 00 1f 	subfic  r10,r12,31
   11620:	7d 6a 50 30 	slw     r10,r11,r10
   11624:	7d 3d 64 30 	srw     r29,r9,r12
   11628:	7d 5d eb 78 	or      r29,r10,r29
   1162c:	7d 1c 64 30 	srw     r28,r8,r12
   11630:	4b ff fd 48 	b       11378 <_fpadd_parts+0xac>
   11634:	3b e0 00 01 	li      r31,1
   11638:	7f eb 60 30 	slw     r11,r31,r12
   1163c:	4b ff fd 54 	b       11390 <_fpadd_parts+0xc4>
   11640:	39 00 ff fe 	li      r8,-2
   11644:	7f 89 40 40 	cmplw   cr7,r9,r8
   11648:	40 9d fd d0 	ble+    cr7,11418 <_fpadd_parts+0x14c>
   1164c:	4b ff fe 24 	b       11470 <_fpadd_parts+0x1a4>
   11650:	3b e0 00 01 	li      r31,1
   11654:	7f eb 60 30 	slw     r11,r31,r12
   11658:	4b ff ff 98 	b       115f0 <_fpadd_parts+0x324>
   1165c:	54 cb 08 3c 	rlwinm  r11,r6,1,0,30
   11660:	21 4c 00 1f 	subfic  r10,r12,31
   11664:	7d 6a 50 30 	slw     r10,r11,r10
   11668:	7c fd 64 30 	srw     r29,r7,r12
   1166c:	7d 5d eb 78 	or      r29,r10,r29
   11670:	7c dc 64 30 	srw     r28,r6,r12
   11674:	4b ff ff 64 	b       115d8 <_fpadd_parts+0x30c>
   11678:	2f 8a 00 04 	cmpwi   cr7,r10,4
   1167c:	40 9e fe 3c 	bne+    cr7,114b8 <_fpadd_parts+0x1ec>
   11680:	81 23 00 04 	lwz     r9,4(r3)
   11684:	81 44 00 04 	lwz     r10,4(r4)
   11688:	7f 89 50 00 	cmpw    cr7,r9,r10
   1168c:	41 be fe 2c 	beq-    cr7,114b8 <_fpadd_parts+0x1ec>
   11690:	80 7e 80 00 	lwz     r3,-32768(r30)
   11694:	4b ff fe 24 	b       114b8 <_fpadd_parts+0x1ec>

00011698 <__adddf3>:
   11698:	7c 08 02 a6 	mflr    r0
   1169c:	94 21 ff 90 	stwu    r1,-112(r1)
   116a0:	90 61 00 58 	stw     r3,88(r1)
   116a4:	90 81 00 5c 	stw     r4,92(r1)
   116a8:	38 61 00 58 	addi    r3,r1,88
   116ac:	38 81 00 38 	addi    r4,r1,56
   116b0:	90 01 00 74 	stw     r0,116(r1)
   116b4:	90 c1 00 54 	stw     r6,84(r1)
   116b8:	90 a1 00 50 	stw     r5,80(r1)
   116bc:	48 00 0c 91 	bl      1234c <__unpack_d>
   116c0:	38 61 00 50 	addi    r3,r1,80
   116c4:	38 81 00 20 	addi    r4,r1,32
   116c8:	48 00 0c 85 	bl      1234c <__unpack_d>
   116cc:	38 81 00 20 	addi    r4,r1,32
   116d0:	38 a1 00 08 	addi    r5,r1,8
   116d4:	38 61 00 38 	addi    r3,r1,56
   116d8:	4b ff fb f5 	bl      112cc <_fpadd_parts>
   116dc:	48 00 0a 51 	bl      1212c <__pack_d>
   116e0:	80 01 00 74 	lwz     r0,116(r1)
   116e4:	7c 08 03 a6 	mtlr    r0
   116e8:	38 21 00 70 	addi    r1,r1,112
   116ec:	4e 80 00 20 	blr

000116f0 <__subdf3>:
   116f0:	7c 08 02 a6 	mflr    r0
   116f4:	94 21 ff 90 	stwu    r1,-112(r1)
   116f8:	90 61 00 58 	stw     r3,88(r1)
   116fc:	90 81 00 5c 	stw     r4,92(r1)
   11700:	38 61 00 58 	addi    r3,r1,88
   11704:	38 81 00 38 	addi    r4,r1,56
   11708:	90 01 00 74 	stw     r0,116(r1)
   1170c:	90 c1 00 54 	stw     r6,84(r1)
   11710:	90 a1 00 50 	stw     r5,80(r1)
   11714:	48 00 0c 39 	bl      1234c <__unpack_d>
   11718:	38 61 00 50 	addi    r3,r1,80
   1171c:	38 81 00 20 	addi    r4,r1,32
   11720:	48 00 0c 2d 	bl      1234c <__unpack_d>
   11724:	81 21 00 24 	lwz     r9,36(r1)
   11728:	38 81 00 20 	addi    r4,r1,32
   1172c:	69 29 00 01 	xori    r9,r9,1
   11730:	38 a1 00 08 	addi    r5,r1,8
   11734:	38 61 00 38 	addi    r3,r1,56
   11738:	91 21 00 24 	stw     r9,36(r1)
   1173c:	4b ff fb 91 	bl      112cc <_fpadd_parts>
   11740:	48 00 09 ed 	bl      1212c <__pack_d>
   11744:	80 01 00 74 	lwz     r0,116(r1)
   11748:	7c 08 03 a6 	mtlr    r0
   1174c:	38 21 00 70 	addi    r1,r1,112
   11750:	4e 80 00 20 	blr
   11754:	3f ff 68 a0 	addis   r31,r31,26784

00011758 <__muldf3>:
   11758:	94 21 ff 80 	stwu    r1,-128(r1)
   1175c:	7c 08 02 a6 	mflr    r0
   11760:	42 9f 00 05 	bcl-    20,4*cr7+so,11764 <__muldf3+0xc>
   11764:	93 c1 00 78 	stw     r30,120(r1)
   11768:	7f c8 02 a6 	mflr    r30
   1176c:	90 01 00 84 	stw     r0,132(r1)
   11770:	90 61 00 58 	stw     r3,88(r1)
   11774:	90 81 00 5c 	stw     r4,92(r1)
   11778:	80 1e ff f0 	lwz     r0,-16(r30)
   1177c:	38 61 00 58 	addi    r3,r1,88
   11780:	7f c0 f2 14 	add     r30,r0,r30
   11784:	38 81 00 38 	addi    r4,r1,56
   11788:	90 a1 00 50 	stw     r5,80(r1)
   1178c:	90 c1 00 54 	stw     r6,84(r1)
   11790:	93 81 00 70 	stw     r28,112(r1)
   11794:	93 a1 00 74 	stw     r29,116(r1)
   11798:	48 00 0b b5 	bl      1234c <__unpack_d>
   1179c:	38 61 00 50 	addi    r3,r1,80
   117a0:	38 81 00 20 	addi    r4,r1,32
   117a4:	48 00 0b a9 	bl      1234c <__unpack_d>
   117a8:	81 21 00 38 	lwz     r9,56(r1)
   117ac:	2b 89 00 01 	cmplwi  cr7,r9,1
   117b0:	41 9d 00 44 	bgt-    cr7,117f4 <__muldf3+0x9c>
   117b4:	81 41 00 3c 	lwz     r10,60(r1)
   117b8:	81 21 00 24 	lwz     r9,36(r1)
   117bc:	38 61 00 38 	addi    r3,r1,56
   117c0:	7d 49 4a 78 	xor     r9,r10,r9
   117c4:	7d 29 00 34 	cntlzw  r9,r9
   117c8:	55 29 d9 7e 	rlwinm  r9,r9,27,5,31
   117cc:	69 29 00 01 	xori    r9,r9,1
   117d0:	91 21 00 3c 	stw     r9,60(r1)
   117d4:	48 00 09 59 	bl      1212c <__pack_d>
   117d8:	80 01 00 84 	lwz     r0,132(r1)
   117dc:	83 81 00 70 	lwz     r28,112(r1)
   117e0:	7c 08 03 a6 	mtlr    r0
   117e4:	83 a1 00 74 	lwz     r29,116(r1)
   117e8:	83 c1 00 78 	lwz     r30,120(r1)
   117ec:	38 21 00 80 	addi    r1,r1,128
   117f0:	4e 80 00 20 	blr
   117f4:	81 41 00 20 	lwz     r10,32(r1)
   117f8:	2b 8a 00 01 	cmplwi  cr7,r10,1
   117fc:	41 9d 00 44 	bgt-    cr7,11840 <__muldf3+0xe8>
   11800:	81 21 00 24 	lwz     r9,36(r1)
   11804:	81 41 00 3c 	lwz     r10,60(r1)
   11808:	38 61 00 20 	addi    r3,r1,32
   1180c:	7d 49 4a 78 	xor     r9,r10,r9
   11810:	7d 29 00 34 	cntlzw  r9,r9
   11814:	55 29 d9 7e 	rlwinm  r9,r9,27,5,31
   11818:	69 29 00 01 	xori    r9,r9,1
   1181c:	91 21 00 24 	stw     r9,36(r1)
   11820:	48 00 09 0d 	bl      1212c <__pack_d>
   11824:	80 01 00 84 	lwz     r0,132(r1)
   11828:	83 81 00 70 	lwz     r28,112(r1)
   1182c:	7c 08 03 a6 	mtlr    r0
   11830:	83 a1 00 74 	lwz     r29,116(r1)
   11834:	83 c1 00 78 	lwz     r30,120(r1)
   11838:	38 21 00 80 	addi    r1,r1,128
   1183c:	4e 80 00 20 	blr
   11840:	2f 89 00 04 	cmpwi   cr7,r9,4
   11844:	40 9e 00 14 	bne-    cr7,11858 <__muldf3+0x100>
   11848:	2f 8a 00 02 	cmpwi   cr7,r10,2
   1184c:	40 be ff 68 	bne-    cr7,117b4 <__muldf3+0x5c>
   11850:	80 7e 80 00 	lwz     r3,-32768(r30)
   11854:	4b ff ff 80 	b       117d4 <__muldf3+0x7c>
   11858:	2f 8a 00 04 	cmpwi   cr7,r10,4
   1185c:	40 9e 00 14 	bne-    cr7,11870 <__muldf3+0x118>
   11860:	2f 89 00 02 	cmpwi   cr7,r9,2
   11864:	40 be ff 9c 	bne-    cr7,11800 <__muldf3+0xa8>
   11868:	80 7e 80 00 	lwz     r3,-32768(r30)
   1186c:	4b ff ff 68 	b       117d4 <__muldf3+0x7c>
   11870:	2f 89 00 02 	cmpwi   cr7,r9,2
   11874:	41 be ff 40 	beq-    cr7,117b4 <__muldf3+0x5c>
   11878:	2f 8a 00 02 	cmpwi   cr7,r10,2
   1187c:	41 be ff 84 	beq-    cr7,11800 <__muldf3+0xa8>
   11880:	80 61 00 48 	lwz     r3,72(r1)
   11884:	80 01 00 4c 	lwz     r0,76(r1)
   11888:	81 41 00 30 	lwz     r10,48(r1)
   1188c:	81 61 00 34 	lwz     r11,52(r1)
   11890:	7d 0a 00 16 	mulhwu  r8,r10,r0
   11894:	7d 2a 01 d6 	mullw   r9,r10,r0
   11898:	7c c3 58 16 	mulhwu  r6,r3,r11
   1189c:	7c e3 59 d6 	mullw   r7,r3,r11
   118a0:	7c 80 58 16 	mulhwu  r4,r0,r11
   118a4:	7c e7 48 14 	addc    r7,r7,r9
   118a8:	7c c6 41 14 	adde    r6,r6,r8
   118ac:	7c a0 59 d6 	mullw   r5,r0,r11
   118b0:	7f 88 30 40 	cmplw   cr7,r8,r6
   118b4:	7f 83 50 16 	mulhwu  r28,r3,r10
   118b8:	7f a3 51 d6 	mullw   r29,r3,r10
   118bc:	41 9d 01 78 	bgt-    cr7,11a34 <__muldf3+0x2dc>
   118c0:	7f 88 30 00 	cmpw    cr7,r8,r6
   118c4:	40 9e 00 0c 	bne-    cr7,118d0 <__muldf3+0x178>
   118c8:	7f 89 38 40 	cmplw   cr7,r9,r7
   118cc:	41 9d 01 68 	bgt-    cr7,11a34 <__muldf3+0x2dc>
   118d0:	39 40 00 00 	li      r10,0
   118d4:	39 60 00 00 	li      r11,0
   118d8:	7c e8 3b 78 	mr      r8,r7
   118dc:	39 20 00 00 	li      r9,0
   118e0:	7d 29 28 14 	addc    r9,r9,r5
   118e4:	7d 08 21 14 	adde    r8,r8,r4
   118e8:	7f 84 40 40 	cmplw   cr7,r4,r8
   118ec:	41 9d 00 14 	bgt-    cr7,11900 <__muldf3+0x1a8>
   118f0:	7f 84 40 00 	cmpw    cr7,r4,r8
   118f4:	40 9e 00 14 	bne-    cr7,11908 <__muldf3+0x1b0>
   118f8:	7f 85 48 40 	cmplw   cr7,r5,r9
   118fc:	40 9d 00 0c 	ble-    cr7,11908 <__muldf3+0x1b0>
   11900:	31 6b 00 01 	addic   r11,r11,1
   11904:	7d 4a 01 94 	addze   r10,r10
   11908:	7c c5 33 78 	mr      r5,r6
   1190c:	80 e1 00 24 	lwz     r7,36(r1)
   11910:	38 80 00 00 	li      r4,0
   11914:	80 c1 00 3c 	lwz     r6,60(r1)
   11918:	7c a5 e8 14 	addc    r5,r5,r29
   1191c:	7c 84 e1 14 	adde    r4,r4,r28
   11920:	3c 00 1f ff 	lis     r0,8191
   11924:	7d 6b 28 14 	addc    r11,r11,r5
   11928:	7d 4a 21 14 	adde    r10,r10,r4
   1192c:	80 a1 00 40 	lwz     r5,64(r1)
   11930:	7c c6 3a 78 	xor     r6,r6,r7
   11934:	60 00 ff ff 	ori     r0,r0,65535
   11938:	80 e1 00 28 	lwz     r7,40(r1)
   1193c:	7c c6 00 34 	cntlzw  r6,r6
   11940:	7f 8a 00 40 	cmplw   cr7,r10,r0
   11944:	7c e5 3a 14 	add     r7,r5,r7
   11948:	54 c6 d9 7e 	rlwinm  r6,r6,27,5,31
   1194c:	38 a7 00 04 	addi    r5,r7,4
   11950:	68 c6 00 01 	xori    r6,r6,1
   11954:	90 a1 00 10 	stw     r5,16(r1)
   11958:	90 c1 00 0c 	stw     r6,12(r1)
   1195c:	38 e7 00 05 	addi    r7,r7,5
   11960:	40 9d 00 4c 	ble-    cr7,119ac <__muldf3+0x254>
   11964:	55 66 07 fe 	clrlwi  r6,r11,31
   11968:	2f 06 00 00 	cmpwi   cr6,r6,0
   1196c:	55 43 f8 7e 	rlwinm  r3,r10,31,1,31
   11970:	55 44 f8 00 	rlwinm  r4,r10,31,0,0
   11974:	55 65 f8 7e 	rlwinm  r5,r11,31,1,31
   11978:	7c 8b 2b 78 	or      r11,r4,r5
   1197c:	7c 6a 1b 78 	mr      r10,r3
   11980:	7f 83 00 40 	cmplw   cr7,r3,r0
   11984:	55 04 f8 00 	rlwinm  r4,r8,31,0,0
   11988:	55 03 f8 7e 	rlwinm  r3,r8,31,1,31
   1198c:	55 25 f8 7e 	rlwinm  r5,r9,31,1,31
   11990:	7c fd 3b 78 	mr      r29,r7
   11994:	41 9a 00 0c 	beq-    cr6,119a0 <__muldf3+0x248>
   11998:	64 68 80 00 	oris    r8,r3,32768
   1199c:	7c 89 2b 78 	or      r9,r4,r5
   119a0:	38 e7 00 01 	addi    r7,r7,1
   119a4:	41 9d ff c0 	bgt+    cr7,11964 <__muldf3+0x20c>
   119a8:	93 a1 00 10 	stw     r29,16(r1)
   119ac:	3f a0 0f ff 	lis     r29,4095
   119b0:	63 bd ff ff 	ori     r29,r29,65535
   119b4:	7f 8a e8 40 	cmplw   cr7,r10,r29
   119b8:	41 9d 00 58 	bgt-    cr7,11a10 <__muldf3+0x2b8>
   119bc:	80 e1 00 10 	lwz     r7,16(r1)
   119c0:	38 e7 ff ff 	addi    r7,r7,-1
   119c4:	2f 88 00 00 	cmpwi   cr7,r8,0
   119c8:	55 60 0f fe 	rlwinm  r0,r11,1,31,31
   119cc:	55 46 08 3c 	rlwinm  r6,r10,1,0,30
   119d0:	55 23 0f fe 	rlwinm  r3,r9,1,31,31
   119d4:	55 65 08 3c 	rlwinm  r5,r11,1,0,30
   119d8:	55 04 08 3c 	rlwinm  r4,r8,1,0,30
   119dc:	7c 0a 33 78 	or      r10,r0,r6
   119e0:	7c 68 23 78 	or      r8,r3,r4
   119e4:	7c ab 2b 78 	mr      r11,r5
   119e8:	55 26 08 3c 	rlwinm  r6,r9,1,0,30
   119ec:	60 a5 00 01 	ori     r5,r5,1
   119f0:	7c e3 3b 78 	mr      r3,r7
   119f4:	40 9c 00 08 	bge-    cr7,119fc <__muldf3+0x2a4>
   119f8:	7c ab 2b 78 	mr      r11,r5
   119fc:	7f 8a e8 40 	cmplw   cr7,r10,r29
   11a00:	7c c9 33 78 	mr      r9,r6
   11a04:	38 e7 ff ff 	addi    r7,r7,-1
   11a08:	40 9d ff bc 	ble+    cr7,119c4 <__muldf3+0x26c>
   11a0c:	90 61 00 10 	stw     r3,16(r1)
   11a10:	55 67 06 3e 	clrlwi  r7,r11,24
   11a14:	2f 87 00 80 	cmpwi   cr7,r7,128
   11a18:	41 9e 00 28 	beq-    cr7,11a40 <__muldf3+0x2e8>
   11a1c:	7c 23 0b 78 	mr      r3,r1
   11a20:	39 20 00 03 	li      r9,3
   11a24:	91 41 00 18 	stw     r10,24(r1)
   11a28:	91 61 00 1c 	stw     r11,28(r1)
   11a2c:	95 23 00 08 	stwu    r9,8(r3)
   11a30:	4b ff fd a4 	b       117d4 <__muldf3+0x7c>
   11a34:	39 40 00 01 	li      r10,1
   11a38:	39 60 00 00 	li      r11,0
   11a3c:	4b ff fe 9c 	b       118d8 <__muldf3+0x180>
   11a40:	55 67 05 ee 	rlwinm  r7,r11,0,23,23
   11a44:	2f 87 00 00 	cmpwi   cr7,r7,0
   11a48:	40 be ff d4 	bne-    cr7,11a1c <__muldf3+0x2c4>
   11a4c:	7d 07 4b 79 	or.     r7,r8,r9
   11a50:	41 a2 ff cc 	beq-    11a1c <__muldf3+0x2c4>
   11a54:	31 2b 00 80 	addic   r9,r11,128
   11a58:	7d 0a 01 94 	addze   r8,r10
   11a5c:	7d 0a 43 78 	mr      r10,r8
   11a60:	55 2b 00 2e 	rlwinm  r11,r9,0,0,23
   11a64:	4b ff ff b8 	b       11a1c <__muldf3+0x2c4>
   11a68:	3f ff 65 90 	addis   r31,r31,26000

00011a6c <__divdf3>:
   11a6c:	94 21 ff a0 	stwu    r1,-96(r1)
   11a70:	7c 08 02 a6 	mflr    r0
   11a74:	42 9f 00 05 	bcl-    20,4*cr7+so,11a78 <__divdf3+0xc>
   11a78:	93 c1 00 58 	stw     r30,88(r1)
   11a7c:	7f c8 02 a6 	mflr    r30
   11a80:	90 01 00 64 	stw     r0,100(r1)
   11a84:	90 61 00 40 	stw     r3,64(r1)
   11a88:	90 81 00 44 	stw     r4,68(r1)
   11a8c:	80 1e ff f0 	lwz     r0,-16(r30)
   11a90:	38 61 00 40 	addi    r3,r1,64
   11a94:	7f c0 f2 14 	add     r30,r0,r30
   11a98:	38 81 00 20 	addi    r4,r1,32
   11a9c:	90 a1 00 38 	stw     r5,56(r1)
   11aa0:	90 c1 00 3c 	stw     r6,60(r1)
   11aa4:	93 81 00 50 	stw     r28,80(r1)
   11aa8:	93 a1 00 54 	stw     r29,84(r1)
   11aac:	93 e1 00 5c 	stw     r31,92(r1)
   11ab0:	48 00 08 9d 	bl      1234c <__unpack_d>
   11ab4:	38 61 00 38 	addi    r3,r1,56
   11ab8:	38 81 00 08 	addi    r4,r1,8
   11abc:	48 00 08 91 	bl      1234c <__unpack_d>
   11ac0:	81 21 00 20 	lwz     r9,32(r1)
   11ac4:	2b 89 00 01 	cmplwi  cr7,r9,1
   11ac8:	41 9d 00 2c 	bgt-    cr7,11af4 <__divdf3+0x88>
   11acc:	38 61 00 20 	addi    r3,r1,32
   11ad0:	48 00 06 5d 	bl      1212c <__pack_d>
   11ad4:	80 01 00 64 	lwz     r0,100(r1)
   11ad8:	83 81 00 50 	lwz     r28,80(r1)
   11adc:	7c 08 03 a6 	mtlr    r0
   11ae0:	83 a1 00 54 	lwz     r29,84(r1)
   11ae4:	83 c1 00 58 	lwz     r30,88(r1)
   11ae8:	83 e1 00 5c 	lwz     r31,92(r1)
   11aec:	38 21 00 60 	addi    r1,r1,96
   11af0:	4e 80 00 20 	blr
   11af4:	81 41 00 08 	lwz     r10,8(r1)
   11af8:	38 61 00 08 	addi    r3,r1,8
   11afc:	2b 8a 00 01 	cmplwi  cr7,r10,1
   11b00:	40 9d ff d0 	ble+    cr7,11ad0 <__divdf3+0x64>
   11b04:	80 e1 00 24 	lwz     r7,36(r1)
   11b08:	81 01 00 0c 	lwz     r8,12(r1)
   11b0c:	2f 89 00 04 	cmpwi   cr7,r9,4
   11b10:	7c e8 42 78 	xor     r8,r7,r8
   11b14:	91 01 00 24 	stw     r8,36(r1)
   11b18:	41 9e 00 0c 	beq-    cr7,11b24 <__divdf3+0xb8>
   11b1c:	2f 89 00 02 	cmpwi   cr7,r9,2
   11b20:	40 9e 00 14 	bne-    cr7,11b34 <__divdf3+0xc8>
   11b24:	7f 89 50 00 	cmpw    cr7,r9,r10
   11b28:	40 9e ff a4 	bne+    cr7,11acc <__divdf3+0x60>
   11b2c:	80 7e 80 00 	lwz     r3,-32768(r30)
   11b30:	4b ff ff a0 	b       11ad0 <__divdf3+0x64>
   11b34:	2f 8a 00 04 	cmpwi   cr7,r10,4
   11b38:	41 9e 00 f0 	beq-    cr7,11c28 <__divdf3+0x1bc>
   11b3c:	2f 8a 00 02 	cmpwi   cr7,r10,2
   11b40:	41 9e 01 08 	beq-    cr7,11c48 <__divdf3+0x1dc>
   11b44:	81 41 00 30 	lwz     r10,48(r1)
   11b48:	80 c1 00 18 	lwz     r6,24(r1)
   11b4c:	81 01 00 28 	lwz     r8,40(r1)
   11b50:	81 21 00 10 	lwz     r9,16(r1)
   11b54:	7f 86 50 40 	cmplw   cr7,r6,r10
   11b58:	7d 29 40 50 	subf    r9,r9,r8
   11b5c:	81 61 00 34 	lwz     r11,52(r1)
   11b60:	80 e1 00 1c 	lwz     r7,28(r1)
   11b64:	91 21 00 28 	stw     r9,40(r1)
   11b68:	41 9d 00 14 	bgt-    cr7,11b7c <__divdf3+0x110>
   11b6c:	7f 86 50 00 	cmpw    cr7,r6,r10
   11b70:	40 9e 00 28 	bne-    cr7,11b98 <__divdf3+0x12c>
   11b74:	7f 87 58 40 	cmplw   cr7,r7,r11
   11b78:	40 9d 00 20 	ble-    cr7,11b98 <__divdf3+0x12c>
   11b7c:	39 29 ff ff 	addi    r9,r9,-1
   11b80:	55 64 0f fe 	rlwinm  r4,r11,1,31,31
   11b84:	55 45 08 3c 	rlwinm  r5,r10,1,0,30
   11b88:	55 68 08 3c 	rlwinm  r8,r11,1,0,30
   11b8c:	91 21 00 28 	stw     r9,40(r1)
   11b90:	7c 8a 2b 78 	or      r10,r4,r5
   11b94:	7d 0b 43 78 	mr      r11,r8
   11b98:	38 60 00 3d 	li      r3,61
   11b9c:	7c 69 03 a6 	mtctr   r3
   11ba0:	3d 00 10 00 	lis     r8,4096
   11ba4:	39 20 00 00 	li      r9,0
   11ba8:	38 80 00 00 	li      r4,0
   11bac:	38 a0 00 00 	li      r5,0
   11bb0:	7f 86 50 40 	cmplw   cr7,r6,r10
   11bb4:	7f 06 50 00 	cmpw    cr6,r6,r10
   11bb8:	55 1c f8 7e 	rlwinm  r28,r8,31,1,31
   11bbc:	55 0c f8 00 	rlwinm  r12,r8,31,0,0
   11bc0:	55 20 f8 7e 	rlwinm  r0,r9,31,1,31
   11bc4:	41 9d 00 28 	bgt-    cr7,11bec <__divdf3+0x180>
   11bc8:	7f 87 58 40 	cmplw   cr7,r7,r11
   11bcc:	7c 88 43 78 	or      r8,r4,r8
   11bd0:	7c a9 4b 78 	or      r9,r5,r9
   11bd4:	40 9a 00 08 	bne-    cr6,11bdc <__divdf3+0x170>
   11bd8:	41 9d 00 14 	bgt-    cr7,11bec <__divdf3+0x180>
   11bdc:	7d 04 43 78 	mr      r4,r8
   11be0:	7d 67 58 10 	subfc   r11,r7,r11
   11be4:	7d 46 51 10 	subfe   r10,r6,r10
   11be8:	7d 25 4b 78 	mr      r5,r9
   11bec:	55 7d 0f fe 	rlwinm  r29,r11,1,31,31
   11bf0:	55 5f 08 3c 	rlwinm  r31,r10,1,0,30
   11bf4:	55 63 08 3c 	rlwinm  r3,r11,1,0,30
   11bf8:	7f 88 e3 78 	mr      r8,r28
   11bfc:	7f aa fb 78 	or      r10,r29,r31
   11c00:	7d 89 03 78 	or      r9,r12,r0
   11c04:	7c 6b 1b 78 	mr      r11,r3
   11c08:	42 00 ff a8 	bdnz+   11bb0 <__divdf3+0x144>
   11c0c:	54 a9 06 3e 	clrlwi  r9,r5,24
   11c10:	2f 89 00 80 	cmpwi   cr7,r9,128
   11c14:	41 9e 00 40 	beq-    cr7,11c54 <__divdf3+0x1e8>
   11c18:	90 81 00 30 	stw     r4,48(r1)
   11c1c:	90 a1 00 34 	stw     r5,52(r1)
   11c20:	38 61 00 20 	addi    r3,r1,32
   11c24:	4b ff fe ac 	b       11ad0 <__divdf3+0x64>
   11c28:	39 40 00 00 	li      r10,0
   11c2c:	39 60 00 00 	li      r11,0
   11c30:	39 20 00 00 	li      r9,0
   11c34:	91 41 00 30 	stw     r10,48(r1)
   11c38:	91 61 00 34 	stw     r11,52(r1)
   11c3c:	91 21 00 28 	stw     r9,40(r1)
   11c40:	38 61 00 20 	addi    r3,r1,32
   11c44:	4b ff fe 8c 	b       11ad0 <__divdf3+0x64>
   11c48:	39 20 00 04 	li      r9,4
   11c4c:	91 21 00 20 	stw     r9,32(r1)
   11c50:	4b ff fe 7c 	b       11acc <__divdf3+0x60>
   11c54:	54 a9 05 ee 	rlwinm  r9,r5,0,23,23
   11c58:	2f 89 00 00 	cmpwi   cr7,r9,0
   11c5c:	40 be ff bc 	bne-    cr7,11c18 <__divdf3+0x1ac>
   11c60:	7d 49 1b 79 	or.     r9,r10,r3
   11c64:	41 a2 ff b4 	beq-    11c18 <__divdf3+0x1ac>
   11c68:	31 65 00 80 	addic   r11,r5,128
   11c6c:	7d 44 01 94 	addze   r10,r4
   11c70:	7d 44 53 78 	mr      r4,r10
   11c74:	55 65 00 2e 	rlwinm  r5,r11,0,0,23
   11c78:	4b ff ff a0 	b       11c18 <__divdf3+0x1ac>

00011c7c <__gtdf2>:
   11c7c:	7c 08 02 a6 	mflr    r0
   11c80:	94 21 ff b0 	stwu    r1,-80(r1)
   11c84:	90 61 00 40 	stw     r3,64(r1)
   11c88:	90 81 00 44 	stw     r4,68(r1)
   11c8c:	38 61 00 40 	addi    r3,r1,64
   11c90:	38 81 00 20 	addi    r4,r1,32
   11c94:	90 01 00 54 	stw     r0,84(r1)
   11c98:	90 a1 00 38 	stw     r5,56(r1)
   11c9c:	90 c1 00 3c 	stw     r6,60(r1)
   11ca0:	48 00 06 ad 	bl      1234c <__unpack_d>
   11ca4:	38 61 00 38 	addi    r3,r1,56
   11ca8:	38 81 00 08 	addi    r4,r1,8
   11cac:	48 00 06 a1 	bl      1234c <__unpack_d>
   11cb0:	81 21 00 20 	lwz     r9,32(r1)
   11cb4:	2b 89 00 01 	cmplwi  cr7,r9,1
   11cb8:	40 9d 00 2c 	ble-    cr7,11ce4 <__gtdf2+0x68>
   11cbc:	81 21 00 08 	lwz     r9,8(r1)
   11cc0:	2b 89 00 01 	cmplwi  cr7,r9,1
   11cc4:	40 9d 00 20 	ble-    cr7,11ce4 <__gtdf2+0x68>
   11cc8:	38 61 00 20 	addi    r3,r1,32
   11ccc:	38 81 00 08 	addi    r4,r1,8
   11cd0:	48 00 07 69 	bl      12438 <__fpcmp_parts_d>
   11cd4:	80 01 00 54 	lwz     r0,84(r1)
   11cd8:	7c 08 03 a6 	mtlr    r0
   11cdc:	38 21 00 50 	addi    r1,r1,80
   11ce0:	4e 80 00 20 	blr
   11ce4:	38 60 ff ff 	li      r3,-1
   11ce8:	4b ff ff ec 	b       11cd4 <__gtdf2+0x58>

00011cec <__gedf2>:
   11cec:	7c 08 02 a6 	mflr    r0
   11cf0:	94 21 ff b0 	stwu    r1,-80(r1)
   11cf4:	90 61 00 40 	stw     r3,64(r1)
   11cf8:	90 81 00 44 	stw     r4,68(r1)
   11cfc:	38 61 00 40 	addi    r3,r1,64
   11d00:	38 81 00 20 	addi    r4,r1,32
   11d04:	90 01 00 54 	stw     r0,84(r1)
   11d08:	90 a1 00 38 	stw     r5,56(r1)
   11d0c:	90 c1 00 3c 	stw     r6,60(r1)
   11d10:	48 00 06 3d 	bl      1234c <__unpack_d>
   11d14:	38 61 00 38 	addi    r3,r1,56
   11d18:	38 81 00 08 	addi    r4,r1,8
   11d1c:	48 00 06 31 	bl      1234c <__unpack_d>
   11d20:	81 21 00 20 	lwz     r9,32(r1)
   11d24:	2b 89 00 01 	cmplwi  cr7,r9,1
   11d28:	40 9d 00 2c 	ble-    cr7,11d54 <__gedf2+0x68>
   11d2c:	81 21 00 08 	lwz     r9,8(r1)
   11d30:	2b 89 00 01 	cmplwi  cr7,r9,1
   11d34:	40 9d 00 20 	ble-    cr7,11d54 <__gedf2+0x68>
   11d38:	38 61 00 20 	addi    r3,r1,32
   11d3c:	38 81 00 08 	addi    r4,r1,8
   11d40:	48 00 06 f9 	bl      12438 <__fpcmp_parts_d>
   11d44:	80 01 00 54 	lwz     r0,84(r1)
   11d48:	7c 08 03 a6 	mtlr    r0
   11d4c:	38 21 00 50 	addi    r1,r1,80
   11d50:	4e 80 00 20 	blr
   11d54:	38 60 ff ff 	li      r3,-1
   11d58:	4b ff ff ec 	b       11d44 <__gedf2+0x58>

00011d5c <__ltdf2>:
   11d5c:	7c 08 02 a6 	mflr    r0
   11d60:	94 21 ff b0 	stwu    r1,-80(r1)
   11d64:	90 61 00 40 	stw     r3,64(r1)
   11d68:	90 81 00 44 	stw     r4,68(r1)
   11d6c:	38 61 00 40 	addi    r3,r1,64
   11d70:	38 81 00 20 	addi    r4,r1,32
   11d74:	90 01 00 54 	stw     r0,84(r1)
   11d78:	90 a1 00 38 	stw     r5,56(r1)
   11d7c:	90 c1 00 3c 	stw     r6,60(r1)
   11d80:	48 00 05 cd 	bl      1234c <__unpack_d>
   11d84:	38 61 00 38 	addi    r3,r1,56
   11d88:	38 81 00 08 	addi    r4,r1,8
   11d8c:	48 00 05 c1 	bl      1234c <__unpack_d>
   11d90:	81 21 00 20 	lwz     r9,32(r1)
   11d94:	2b 89 00 01 	cmplwi  cr7,r9,1
   11d98:	40 9d 00 2c 	ble-    cr7,11dc4 <__ltdf2+0x68>
   11d9c:	81 21 00 08 	lwz     r9,8(r1)
   11da0:	2b 89 00 01 	cmplwi  cr7,r9,1
   11da4:	40 9d 00 20 	ble-    cr7,11dc4 <__ltdf2+0x68>
   11da8:	38 61 00 20 	addi    r3,r1,32
   11dac:	38 81 00 08 	addi    r4,r1,8
   11db0:	48 00 06 89 	bl      12438 <__fpcmp_parts_d>
   11db4:	80 01 00 54 	lwz     r0,84(r1)
   11db8:	7c 08 03 a6 	mtlr    r0
   11dbc:	38 21 00 50 	addi    r1,r1,80
   11dc0:	4e 80 00 20 	blr
   11dc4:	38 60 00 01 	li      r3,1
   11dc8:	4b ff ff ec 	b       11db4 <__ltdf2+0x58>

00011dcc <__floatsidf>:
   11dcc:	7c 08 02 a6 	mflr    r0
   11dd0:	2f 83 00 00 	cmpwi   cr7,r3,0
   11dd4:	94 21 ff d0 	stwu    r1,-48(r1)
   11dd8:	54 69 0f fe 	rlwinm  r9,r3,1,31,31
   11ddc:	39 40 00 03 	li      r10,3
   11de0:	90 01 00 34 	stw     r0,52(r1)
   11de4:	91 41 00 08 	stw     r10,8(r1)
   11de8:	91 21 00 0c 	stw     r9,12(r1)
   11dec:	40 9e 00 24 	bne-    cr7,11e10 <__floatsidf+0x44>
   11df0:	39 20 00 02 	li      r9,2
   11df4:	91 21 00 08 	stw     r9,8(r1)
   11df8:	38 61 00 08 	addi    r3,r1,8
   11dfc:	48 00 03 31 	bl      1212c <__pack_d>
   11e00:	80 01 00 34 	lwz     r0,52(r1)
   11e04:	7c 08 03 a6 	mtlr    r0
   11e08:	38 21 00 30 	addi    r1,r1,48
   11e0c:	4e 80 00 20 	blr
   11e10:	2f 89 00 00 	cmpwi   cr7,r9,0
   11e14:	39 40 00 3c 	li      r10,60
   11e18:	91 41 00 10 	stw     r10,16(r1)
   11e1c:	40 9e 00 30 	bne-    cr7,11e4c <__floatsidf+0x80>
   11e20:	7c 69 00 34 	cntlzw  r9,r3
   11e24:	35 49 ff fd 	addic.  r10,r9,-3
   11e28:	39 09 00 1d 	addi    r8,r9,29
   11e2c:	41 80 00 34 	blt-    11e60 <__floatsidf+0x94>
   11e30:	7c 63 50 30 	slw     r3,r3,r10
   11e34:	39 40 00 00 	li      r10,0
   11e38:	90 61 00 18 	stw     r3,24(r1)
   11e3c:	91 41 00 1c 	stw     r10,28(r1)
   11e40:	21 29 00 1f 	subfic  r9,r9,31
   11e44:	91 21 00 10 	stw     r9,16(r1)
   11e48:	4b ff ff b0 	b       11df8 <__floatsidf+0x2c>
   11e4c:	3d 20 80 00 	lis     r9,-32768
   11e50:	7f 83 48 00 	cmpw    cr7,r3,r9
   11e54:	41 9e 00 28 	beq-    cr7,11e7c <__floatsidf+0xb0>
   11e58:	7c 63 00 d0 	neg     r3,r3
   11e5c:	4b ff ff c4 	b       11e20 <__floatsidf+0x54>
   11e60:	54 67 f8 7e 	rlwinm  r7,r3,31,1,31
   11e64:	21 48 00 1f 	subfic  r10,r8,31
   11e68:	7c ea 54 30 	srw     r10,r7,r10
   11e6c:	7c 63 40 30 	slw     r3,r3,r8
   11e70:	91 41 00 18 	stw     r10,24(r1)
   11e74:	90 61 00 1c 	stw     r3,28(r1)
   11e78:	4b ff ff c8 	b       11e40 <__floatsidf+0x74>
   11e7c:	3c 60 c1 e0 	lis     r3,-15904
   11e80:	38 80 00 00 	li      r4,0
   11e84:	4b ff ff 7c 	b       11e00 <__floatsidf+0x34>

00011e88 <__fixdfsi>:
   11e88:	7c 08 02 a6 	mflr    r0
   11e8c:	94 21 ff d0 	stwu    r1,-48(r1)
   11e90:	90 61 00 20 	stw     r3,32(r1)
   11e94:	90 81 00 24 	stw     r4,36(r1)
   11e98:	38 61 00 20 	addi    r3,r1,32
   11e9c:	38 81 00 08 	addi    r4,r1,8
   11ea0:	90 01 00 34 	stw     r0,52(r1)
   11ea4:	48 00 04 a9 	bl      1234c <__unpack_d>
   11ea8:	81 21 00 08 	lwz     r9,8(r1)
   11eac:	2f 89 00 02 	cmpwi   cr7,r9,2
   11eb0:	41 9e 00 80 	beq-    cr7,11f30 <__fixdfsi+0xa8>
   11eb4:	2b 89 00 01 	cmplwi  cr7,r9,1
   11eb8:	40 9d 00 78 	ble-    cr7,11f30 <__fixdfsi+0xa8>
   11ebc:	2f 89 00 04 	cmpwi   cr7,r9,4
   11ec0:	41 9e 00 4c 	beq-    cr7,11f0c <__fixdfsi+0x84>
   11ec4:	80 61 00 10 	lwz     r3,16(r1)
   11ec8:	2f 83 00 00 	cmpwi   cr7,r3,0
   11ecc:	41 9c 00 64 	blt-    cr7,11f30 <__fixdfsi+0xa8>
   11ed0:	2f 83 00 1e 	cmpwi   cr7,r3,30
   11ed4:	41 9d 00 38 	bgt-    cr7,11f0c <__fixdfsi+0x84>
   11ed8:	20 63 00 3c 	subfic  r3,r3,60
   11edc:	35 23 ff e0 	addic.  r9,r3,-32
   11ee0:	41 80 00 64 	blt-    11f44 <__fixdfsi+0xbc>
   11ee4:	80 61 00 18 	lwz     r3,24(r1)
   11ee8:	7c 63 4c 30 	srw     r3,r3,r9
   11eec:	81 21 00 0c 	lwz     r9,12(r1)
   11ef0:	2f 89 00 00 	cmpwi   cr7,r9,0
   11ef4:	41 9e 00 2c 	beq-    cr7,11f20 <__fixdfsi+0x98>
   11ef8:	80 01 00 34 	lwz     r0,52(r1)
   11efc:	7c 63 00 d0 	neg     r3,r3
   11f00:	7c 08 03 a6 	mtlr    r0
   11f04:	38 21 00 30 	addi    r1,r1,48
   11f08:	4e 80 00 20 	blr
   11f0c:	80 61 00 0c 	lwz     r3,12(r1)
   11f10:	3d 20 80 00 	lis     r9,-32768
   11f14:	7c 63 00 34 	cntlzw  r3,r3
   11f18:	54 63 d9 7e 	rlwinm  r3,r3,27,5,31
   11f1c:	7c 63 48 50 	subf    r3,r3,r9
   11f20:	80 01 00 34 	lwz     r0,52(r1)
   11f24:	7c 08 03 a6 	mtlr    r0
   11f28:	38 21 00 30 	addi    r1,r1,48
   11f2c:	4e 80 00 20 	blr
   11f30:	80 01 00 34 	lwz     r0,52(r1)
   11f34:	38 60 00 00 	li      r3,0
   11f38:	7c 08 03 a6 	mtlr    r0
   11f3c:	38 21 00 30 	addi    r1,r1,48
   11f40:	4e 80 00 20 	blr
   11f44:	81 21 00 18 	lwz     r9,24(r1)
   11f48:	21 43 00 1f 	subfic  r10,r3,31
   11f4c:	55 29 08 3c 	rlwinm  r9,r9,1,0,30
   11f50:	7d 2a 50 30 	slw     r10,r9,r10
   11f54:	81 21 00 1c 	lwz     r9,28(r1)
   11f58:	7d 23 1c 30 	srw     r3,r9,r3
   11f5c:	7d 43 1b 78 	or      r3,r10,r3
   11f60:	4b ff ff 8c 	b       11eec <__fixdfsi+0x64>

00011f64 <__truncdfsf2>:
   11f64:	7c 08 02 a6 	mflr    r0
   11f68:	94 21 ff d0 	stwu    r1,-48(r1)
   11f6c:	90 61 00 20 	stw     r3,32(r1)
   11f70:	90 81 00 24 	stw     r4,36(r1)
   11f74:	38 61 00 20 	addi    r3,r1,32
   11f78:	38 81 00 08 	addi    r4,r1,8
   11f7c:	90 01 00 34 	stw     r0,52(r1)
   11f80:	48 00 03 cd 	bl      1234c <__unpack_d>
   11f84:	80 c1 00 1c 	lwz     r6,28(r1)
   11f88:	54 c9 00 bf 	clrlwi. r9,r6,2
   11f8c:	81 21 00 18 	lwz     r9,24(r1)
   11f90:	54 c6 17 be 	rlwinm  r6,r6,2,30,31
   11f94:	55 29 10 3a 	rlwinm  r9,r9,2,0,29
   11f98:	7d 26 33 78 	or      r6,r9,r6
   11f9c:	41 82 00 08 	beq-    11fa4 <__truncdfsf2+0x40>
   11fa0:	60 c6 00 01 	ori     r6,r6,1
   11fa4:	80 61 00 08 	lwz     r3,8(r1)
   11fa8:	80 81 00 0c 	lwz     r4,12(r1)
   11fac:	80 a1 00 10 	lwz     r5,16(r1)
   11fb0:	48 00 01 49 	bl      120f8 <__make_fp>
   11fb4:	80 01 00 34 	lwz     r0,52(r1)
   11fb8:	7c 08 03 a6 	mtlr    r0
   11fbc:	38 21 00 30 	addi    r1,r1,48
   11fc0:	4e 80 00 20 	blr

00011fc4 <__floatunsidf>:
   11fc4:	7c 08 02 a6 	mflr    r0
   11fc8:	2c 03 00 00 	cmpwi   r3,0
   11fcc:	94 21 ff d0 	stwu    r1,-48(r1)
   11fd0:	39 40 00 00 	li      r10,0
   11fd4:	90 01 00 34 	stw     r0,52(r1)
   11fd8:	91 41 00 0c 	stw     r10,12(r1)
   11fdc:	41 82 00 58 	beq-    12034 <__floatunsidf+0x70>
   11fe0:	7c 69 00 34 	cntlzw  r9,r3
   11fe4:	34 c9 00 1d 	addic.  r6,r9,29
   11fe8:	38 e0 00 03 	li      r7,3
   11fec:	90 e1 00 08 	stw     r7,8(r1)
   11ff0:	38 e0 00 3c 	li      r7,60
   11ff4:	90 e1 00 10 	stw     r7,16(r1)
   11ff8:	41 80 00 5c 	blt-    12054 <__floatunsidf+0x90>
   11ffc:	41 82 00 c8 	beq-    120c4 <__floatunsidf+0x100>
   12000:	34 e9 ff fd 	addic.  r7,r9,-3
   12004:	41 80 00 cc 	blt-    120d0 <__floatunsidf+0x10c>
   12008:	7c 68 38 30 	slw     r8,r3,r7
   1200c:	91 01 00 18 	stw     r8,24(r1)
   12010:	91 41 00 1c 	stw     r10,28(r1)
   12014:	21 29 00 1f 	subfic  r9,r9,31
   12018:	91 21 00 10 	stw     r9,16(r1)
   1201c:	38 61 00 08 	addi    r3,r1,8
   12020:	48 00 01 0d 	bl      1212c <__pack_d>
   12024:	80 01 00 34 	lwz     r0,52(r1)
   12028:	7c 08 03 a6 	mtlr    r0
   1202c:	38 21 00 30 	addi    r1,r1,48
   12030:	4e 80 00 20 	blr
   12034:	39 20 00 02 	li      r9,2
   12038:	38 61 00 08 	addi    r3,r1,8
   1203c:	91 21 00 08 	stw     r9,8(r1)
   12040:	48 00 00 ed 	bl      1212c <__pack_d>
   12044:	80 01 00 34 	lwz     r0,52(r1)
   12048:	7c 08 03 a6 	mtlr    r0
   1204c:	38 21 00 30 	addi    r1,r1,48
   12050:	4e 80 00 20 	blr
   12054:	7c c6 00 d0 	neg     r6,r6
   12058:	34 e6 ff e0 	addic.  r7,r6,-32
   1205c:	38 a0 00 01 	li      r5,1
   12060:	39 40 00 00 	li      r10,0
   12064:	7c ab 30 30 	slw     r11,r5,r6
   12068:	41 80 00 0c 	blt-    12074 <__floatunsidf+0xb0>
   1206c:	7c aa 38 30 	slw     r10,r5,r7
   12070:	39 60 00 00 	li      r11,0
   12074:	2f 87 00 00 	cmpwi   cr7,r7,0
   12078:	31 6b ff ff 	addic   r11,r11,-1
   1207c:	7d 4a 01 d4 	addme   r10,r10
   12080:	7c 6a 58 38 	and     r10,r3,r11
   12084:	31 0a ff ff 	addic   r8,r10,-1
   12088:	7c a8 51 10 	subfe   r5,r8,r10
   1208c:	41 9c 00 60 	blt-    cr7,120ec <__floatunsidf+0x128>
   12090:	38 c0 00 00 	li      r6,0
   12094:	39 40 00 00 	li      r10,0
   12098:	7c a6 33 78 	or      r6,r5,r6
   1209c:	21 29 00 1f 	subfic  r9,r9,31
   120a0:	38 61 00 08 	addi    r3,r1,8
   120a4:	91 41 00 18 	stw     r10,24(r1)
   120a8:	90 c1 00 1c 	stw     r6,28(r1)
   120ac:	91 21 00 10 	stw     r9,16(r1)
   120b0:	48 00 00 7d 	bl      1212c <__pack_d>
   120b4:	80 01 00 34 	lwz     r0,52(r1)
   120b8:	7c 08 03 a6 	mtlr    r0
   120bc:	38 21 00 30 	addi    r1,r1,48
   120c0:	4e 80 00 20 	blr
   120c4:	90 c1 00 18 	stw     r6,24(r1)
   120c8:	90 61 00 1c 	stw     r3,28(r1)
   120cc:	4b ff ff 50 	b       1201c <__floatunsidf+0x58>
   120d0:	54 67 f8 7e 	rlwinm  r7,r3,31,1,31
   120d4:	21 46 00 1f 	subfic  r10,r6,31
   120d8:	7c ea 54 30 	srw     r10,r7,r10
   120dc:	7c 68 30 30 	slw     r8,r3,r6
   120e0:	91 41 00 18 	stw     r10,24(r1)
   120e4:	91 01 00 1c 	stw     r8,28(r1)
   120e8:	4b ff ff 2c 	b       12014 <__floatunsidf+0x50>
   120ec:	7c 66 34 30 	srw     r6,r3,r6
   120f0:	39 40 00 00 	li      r10,0
   120f4:	4b ff ff a4 	b       12098 <__floatunsidf+0xd4>

000120f8 <__make_fp>:
   120f8:	7c 08 02 a6 	mflr    r0
   120fc:	94 21 ff e0 	stwu    r1,-32(r1)
   12100:	90 61 00 08 	stw     r3,8(r1)
   12104:	38 61 00 08 	addi    r3,r1,8
   12108:	90 01 00 24 	stw     r0,36(r1)
   1210c:	90 81 00 0c 	stw     r4,12(r1)
   12110:	90 a1 00 10 	stw     r5,16(r1)
   12114:	90 c1 00 14 	stw     r6,20(r1)
   12118:	48 00 04 a9 	bl      125c0 <__pack_f>
   1211c:	80 01 00 24 	lwz     r0,36(r1)
   12120:	7c 08 03 a6 	mtlr    r0
   12124:	38 21 00 20 	addi    r1,r1,32
   12128:	4e 80 00 20 	blr

0001212c <__pack_d>:
   1212c:	7c 08 02 a6 	mflr    r0
   12130:	94 21 ff d0 	stwu    r1,-48(r1)
   12134:	93 e1 00 2c 	stw     r31,44(r1)
   12138:	90 01 00 34 	stw     r0,52(r1)
   1213c:	93 21 00 14 	stw     r25,20(r1)
   12140:	81 23 00 00 	lwz     r9,0(r3)
   12144:	93 41 00 18 	stw     r26,24(r1)
   12148:	2b 89 00 01 	cmplwi  cr7,r9,1
   1214c:	93 61 00 1c 	stw     r27,28(r1)
   12150:	93 81 00 20 	stw     r28,32(r1)
   12154:	93 a1 00 24 	stw     r29,36(r1)
   12158:	93 c1 00 28 	stw     r30,40(r1)
   1215c:	83 e3 00 04 	lwz     r31,4(r3)
   12160:	83 83 00 10 	lwz     r28,16(r3)
   12164:	83 a3 00 14 	lwz     r29,20(r3)
   12168:	40 9d 01 0c 	ble-    cr7,12274 <__pack_d+0x148>
   1216c:	2f 89 00 04 	cmpwi   cr7,r9,4
   12170:	41 9e 00 f0 	beq-    cr7,12260 <__pack_d+0x134>
   12174:	2f 89 00 02 	cmpwi   cr7,r9,2
   12178:	41 9e 00 7c 	beq-    cr7,121f4 <__pack_d+0xc8>
   1217c:	7f 89 eb 79 	or.     r9,r28,r29
   12180:	41 82 00 74 	beq-    121f4 <__pack_d+0xc8>
   12184:	81 23 00 08 	lwz     r9,8(r3)
   12188:	2f 89 fc 02 	cmpwi   cr7,r9,-1022
   1218c:	41 9c 01 00 	blt-    cr7,1228c <__pack_d+0x160>
   12190:	2f 89 03 ff 	cmpwi   cr7,r9,1023
   12194:	41 9d 00 cc 	bgt-    cr7,12260 <__pack_d+0x134>
   12198:	57 aa 06 3e 	clrlwi  r10,r29,24
   1219c:	2f 8a 00 80 	cmpwi   cr7,r10,128
   121a0:	41 9e 00 a8 	beq-    cr7,12248 <__pack_d+0x11c>
   121a4:	33 bd 00 7f 	addic   r29,r29,127
   121a8:	7f 9c 01 94 	addze   r28,r28
   121ac:	3d 40 1f ff 	lis     r10,8191
   121b0:	61 4a ff ff 	ori     r10,r10,65535
   121b4:	7f 9c 50 40 	cmplw   cr7,r28,r10
   121b8:	38 89 03 ff 	addi    r4,r9,1023
   121bc:	40 9d 00 1c 	ble-    cr7,121d8 <__pack_d+0xac>
   121c0:	57 88 f8 00 	rlwinm  r8,r28,31,0,0
   121c4:	57 87 f8 7e 	rlwinm  r7,r28,31,1,31
   121c8:	57 aa f8 7e 	rlwinm  r10,r29,31,1,31
   121cc:	7c fc 3b 78 	mr      r28,r7
   121d0:	7d 1d 53 78 	or      r29,r8,r10
   121d4:	38 89 04 00 	addi    r4,r9,1024
   121d8:	57 85 c0 0e 	rlwinm  r5,r28,24,0,7
   121dc:	57 aa c2 3e 	rlwinm  r10,r29,24,8,31
   121e0:	57 88 c3 3e 	rlwinm  r8,r28,24,12,31
   121e4:	54 86 a0 16 	rlwinm  r6,r4,20,0,11
   121e8:	7c a9 53 78 	or      r9,r5,r10
   121ec:	38 e0 00 00 	li      r7,0
   121f0:	48 00 00 14 	b       12204 <__pack_d+0xd8>
   121f4:	38 c0 00 00 	li      r6,0
   121f8:	38 e0 00 00 	li      r7,0
   121fc:	39 00 00 00 	li      r8,0
   12200:	39 20 00 00 	li      r9,0
   12204:	80 01 00 34 	lwz     r0,52(r1)
   12208:	57 ff f8 00 	rlwinm  r31,r31,31,0,0
   1220c:	7c 08 03 a6 	mtlr    r0
   12210:	7d 08 33 78 	or      r8,r8,r6
   12214:	7d 0a fb 78 	or      r10,r8,r31
   12218:	7d 2b 3b 78 	or      r11,r9,r7
   1221c:	83 21 00 14 	lwz     r25,20(r1)
   12220:	83 41 00 18 	lwz     r26,24(r1)
   12224:	83 61 00 1c 	lwz     r27,28(r1)
   12228:	83 81 00 20 	lwz     r28,32(r1)
   1222c:	83 a1 00 24 	lwz     r29,36(r1)
   12230:	83 c1 00 28 	lwz     r30,40(r1)
   12234:	83 e1 00 2c 	lwz     r31,44(r1)
   12238:	7d 43 53 78 	mr      r3,r10
   1223c:	7d 64 5b 78 	mr      r4,r11
   12240:	38 21 00 30 	addi    r1,r1,48
   12244:	4e 80 00 20 	blr
   12248:	57 aa 05 ee 	rlwinm  r10,r29,0,23,23
   1224c:	2f 8a 00 00 	cmpwi   cr7,r10,0
   12250:	41 be ff 5c 	beq-    cr7,121ac <__pack_d+0x80>
   12254:	33 bd 00 80 	addic   r29,r29,128
   12258:	7f 9c 01 94 	addze   r28,r28
   1225c:	4b ff ff 50 	b       121ac <__pack_d+0x80>
   12260:	3c c0 7f f0 	lis     r6,32752
   12264:	38 e0 00 00 	li      r7,0
   12268:	39 00 00 00 	li      r8,0
   1226c:	39 20 00 00 	li      r9,0
   12270:	4b ff ff 94 	b       12204 <__pack_d+0xd8>
   12274:	57 8a 03 3e 	clrlwi  r10,r28,12
   12278:	65 48 00 08 	oris    r8,r10,8
   1227c:	7f a9 eb 78 	mr      r9,r29
   12280:	3c c0 7f f0 	lis     r6,32752
   12284:	38 e0 00 00 	li      r7,0
   12288:	4b ff ff 7c 	b       12204 <__pack_d+0xd8>
   1228c:	23 29 fc 02 	subfic  r25,r9,-1022
   12290:	2f 99 00 38 	cmpwi   cr7,r25,56
   12294:	41 9d 00 a4 	bgt-    cr7,12338 <__pack_d+0x20c>
   12298:	7f 25 cb 78 	mr      r5,r25
   1229c:	7f 83 e3 78 	mr      r3,r28
   122a0:	7f a4 eb 78 	mr      r4,r29
   122a4:	48 00 02 9d 	bl      12540 <__lshrdi3>
   122a8:	7c 7a 1b 78 	mr      r26,r3
   122ac:	7c 9b 23 78 	mr      r27,r4
   122b0:	7f 25 cb 78 	mr      r5,r25
   122b4:	38 60 00 00 	li      r3,0
   122b8:	38 80 00 01 	li      r4,1
   122bc:	48 00 02 c5 	bl      12580 <__ashldi3>
   122c0:	30 84 ff ff 	addic   r4,r4,-1
   122c4:	7c 63 01 d4 	addme   r3,r3
   122c8:	7c 89 e8 38 	and     r9,r4,r29
   122cc:	7c 68 e0 38 	and     r8,r3,r28
   122d0:	7d 08 4b 78 	or      r8,r8,r9
   122d4:	31 48 ff ff 	addic   r10,r8,-1
   122d8:	7d 2a 41 10 	subfe   r9,r10,r8
   122dc:	7d 2b db 78 	or      r11,r9,r27
   122e0:	55 69 06 3e 	clrlwi  r9,r11,24
   122e4:	2f 89 00 80 	cmpwi   cr7,r9,128
   122e8:	7f 4a d3 78 	mr      r10,r26
   122ec:	40 9e 00 54 	bne-    cr7,12340 <__pack_d+0x214>
   122f0:	55 69 05 ee 	rlwinm  r9,r11,0,23,23
   122f4:	2f 89 00 00 	cmpwi   cr7,r9,0
   122f8:	41 9e 00 0c 	beq-    cr7,12304 <__pack_d+0x1d8>
   122fc:	31 6b 00 80 	addic   r11,r11,128
   12300:	7d 4a 01 94 	addze   r10,r10
   12304:	3d 20 0f ff 	lis     r9,4095
   12308:	61 29 ff ff 	ori     r9,r9,65535
   1230c:	7c ea 48 10 	subfc   r7,r10,r9
   12310:	7c e7 39 10 	subfe   r7,r7,r7
   12314:	7c e7 00 d0 	neg     r7,r7
   12318:	54 e5 07 fe 	clrlwi  r5,r7,31
   1231c:	55 43 c0 0e 	rlwinm  r3,r10,24,0,7
   12320:	55 64 c2 3e 	rlwinm  r4,r11,24,8,31
   12324:	55 48 c3 3e 	rlwinm  r8,r10,24,12,31
   12328:	54 a6 a0 16 	rlwinm  r6,r5,20,0,11
   1232c:	7c 69 23 78 	or      r9,r3,r4
   12330:	38 e0 00 00 	li      r7,0
   12334:	4b ff fe d0 	b       12204 <__pack_d+0xd8>
   12338:	39 40 00 00 	li      r10,0
   1233c:	39 60 00 00 	li      r11,0
   12340:	31 6b 00 7f 	addic   r11,r11,127
   12344:	7d 4a 01 94 	addze   r10,r10
   12348:	4b ff ff bc 	b       12304 <__pack_d+0x1d8>

0001234c <__unpack_d>:
   1234c:	81 03 00 00 	lwz     r8,0(r3)
   12350:	81 43 00 04 	lwz     r10,4(r3)
   12354:	55 06 65 7f 	rlwinm. r6,r8,12,21,31
   12358:	55 07 0f fe 	rlwinm  r7,r8,1,31,31
   1235c:	55 09 03 3e 	clrlwi  r9,r8,12
   12360:	90 e4 00 04 	stw     r7,4(r4)
   12364:	40 82 00 60 	bne-    123c4 <__unpack_d+0x78>
   12368:	7d 27 53 79 	or.     r7,r9,r10
   1236c:	41 82 00 90 	beq-    123fc <__unpack_d+0xb0>
   12370:	38 e0 00 03 	li      r7,3
   12374:	55 48 46 3e 	rlwinm  r8,r10,8,24,31
   12378:	55 29 40 2e 	rlwinm  r9,r9,8,0,23
   1237c:	3c c0 0f ff 	lis     r6,4095
   12380:	90 e4 00 00 	stw     r7,0(r4)
   12384:	7d 09 4b 78 	or      r9,r8,r9
   12388:	55 4a 40 2e 	rlwinm  r10,r10,8,0,23
   1238c:	39 00 fc 01 	li      r8,-1023
   12390:	60 c6 ff ff 	ori     r6,r6,65535
   12394:	55 47 0f fe 	rlwinm  r7,r10,1,31,31
   12398:	55 29 08 3c 	rlwinm  r9,r9,1,0,30
   1239c:	7c e9 4b 78 	or      r9,r7,r9
   123a0:	7f 89 30 40 	cmplw   cr7,r9,r6
   123a4:	7d 07 43 78 	mr      r7,r8
   123a8:	55 4a 08 3c 	rlwinm  r10,r10,1,0,30
   123ac:	39 08 ff ff 	addi    r8,r8,-1
   123b0:	40 9d ff e4 	ble+    cr7,12394 <__unpack_d+0x48>
   123b4:	90 e4 00 08 	stw     r7,8(r4)
   123b8:	91 24 00 10 	stw     r9,16(r4)
   123bc:	91 44 00 14 	stw     r10,20(r4)
   123c0:	4e 80 00 20 	blr
   123c4:	2f 86 07 ff 	cmpwi   cr7,r6,2047
   123c8:	41 9e 00 40 	beq-    cr7,12408 <__unpack_d+0xbc>
   123cc:	55 48 46 3e 	rlwinm  r8,r10,8,24,31
   123d0:	55 29 40 2e 	rlwinm  r9,r9,8,0,23
   123d4:	7d 09 4b 78 	or      r9,r8,r9
   123d8:	38 c6 fc 01 	addi    r6,r6,-1023
   123dc:	39 00 00 03 	li      r8,3
   123e0:	90 c4 00 08 	stw     r6,8(r4)
   123e4:	91 04 00 00 	stw     r8,0(r4)
   123e8:	55 4a 40 2e 	rlwinm  r10,r10,8,0,23
   123ec:	65 29 10 00 	oris    r9,r9,4096
   123f0:	91 24 00 10 	stw     r9,16(r4)
   123f4:	91 44 00 14 	stw     r10,20(r4)
   123f8:	4e 80 00 20 	blr
   123fc:	39 20 00 02 	li      r9,2
   12400:	91 24 00 00 	stw     r9,0(r4)
   12404:	4e 80 00 20 	blr
   12408:	7d 27 53 79 	or.     r7,r9,r10
   1240c:	41 82 00 18 	beq-    12424 <__unpack_d+0xd8>
   12410:	75 07 00 08 	andis.  r7,r8,8
   12414:	41 82 00 1c 	beq-    12430 <__unpack_d+0xe4>
   12418:	39 00 00 01 	li      r8,1
   1241c:	91 04 00 00 	stw     r8,0(r4)
   12420:	4b ff ff d0 	b       123f0 <__unpack_d+0xa4>
   12424:	39 20 00 04 	li      r9,4
   12428:	91 24 00 00 	stw     r9,0(r4)
   1242c:	4e 80 00 20 	blr
   12430:	90 e4 00 00 	stw     r7,0(r4)
   12434:	4b ff ff bc 	b       123f0 <__unpack_d+0xa4>

00012438 <__fpcmp_parts_d>:
   12438:	81 23 00 00 	lwz     r9,0(r3)
   1243c:	2b 89 00 01 	cmplwi  cr7,r9,1
   12440:	40 9d 00 48 	ble-    cr7,12488 <__fpcmp_parts_d+0x50>
   12444:	81 44 00 00 	lwz     r10,0(r4)
   12448:	2b 8a 00 01 	cmplwi  cr7,r10,1
   1244c:	40 9d 00 3c 	ble-    cr7,12488 <__fpcmp_parts_d+0x50>
   12450:	2f 89 00 04 	cmpwi   cr7,r9,4
   12454:	41 9e 00 d4 	beq-    cr7,12528 <__fpcmp_parts_d+0xf0>
   12458:	2f 8a 00 04 	cmpwi   cr7,r10,4
   1245c:	41 9e 00 3c 	beq-    cr7,12498 <__fpcmp_parts_d+0x60>
   12460:	2f 89 00 02 	cmpwi   cr7,r9,2
   12464:	41 9e 00 2c 	beq-    cr7,12490 <__fpcmp_parts_d+0x58>
   12468:	2f 8a 00 02 	cmpwi   cr7,r10,2
   1246c:	41 9e 00 40 	beq-    cr7,124ac <__fpcmp_parts_d+0x74>
   12470:	81 23 00 04 	lwz     r9,4(r3)
   12474:	81 44 00 04 	lwz     r10,4(r4)
   12478:	7f 89 50 00 	cmpw    cr7,r9,r10
   1247c:	41 9e 00 44 	beq-    cr7,124c0 <__fpcmp_parts_d+0x88>
   12480:	2f 89 00 00 	cmpwi   cr7,r9,0
   12484:	40 9e 00 20 	bne-    cr7,124a4 <__fpcmp_parts_d+0x6c>
   12488:	38 60 00 01 	li      r3,1
   1248c:	4e 80 00 20 	blr
   12490:	2f 8a 00 02 	cmpwi   cr7,r10,2
   12494:	41 9e 00 8c 	beq-    cr7,12520 <__fpcmp_parts_d+0xe8>
   12498:	81 24 00 04 	lwz     r9,4(r4)
   1249c:	2f 89 00 00 	cmpwi   cr7,r9,0
   124a0:	40 be ff e8 	bne-    cr7,12488 <__fpcmp_parts_d+0x50>
   124a4:	38 60 ff ff 	li      r3,-1
   124a8:	4e 80 00 20 	blr
   124ac:	81 23 00 04 	lwz     r9,4(r3)
   124b0:	38 60 00 01 	li      r3,1
   124b4:	2f 89 00 00 	cmpwi   cr7,r9,0
   124b8:	4d be 00 20 	beqlr+  cr7
   124bc:	4b ff ff e8 	b       124a4 <__fpcmp_parts_d+0x6c>
   124c0:	81 03 00 08 	lwz     r8,8(r3)
   124c4:	81 44 00 08 	lwz     r10,8(r4)
   124c8:	7f 88 50 00 	cmpw    cr7,r8,r10
   124cc:	41 bd ff b4 	bgt-    cr7,12480 <__fpcmp_parts_d+0x48>
   124d0:	41 9c 00 44 	blt-    cr7,12514 <__fpcmp_parts_d+0xdc>
   124d4:	81 43 00 10 	lwz     r10,16(r3)
   124d8:	81 04 00 10 	lwz     r8,16(r4)
   124dc:	80 e3 00 14 	lwz     r7,20(r3)
   124e0:	7f 8a 40 40 	cmplw   cr7,r10,r8
   124e4:	80 c4 00 14 	lwz     r6,20(r4)
   124e8:	41 bd ff 98 	bgt-    cr7,12480 <__fpcmp_parts_d+0x48>
   124ec:	7f 8a 40 00 	cmpw    cr7,r10,r8
   124f0:	40 9e 00 0c 	bne-    cr7,124fc <__fpcmp_parts_d+0xc4>
   124f4:	7f 87 30 40 	cmplw   cr7,r7,r6
   124f8:	41 bd ff 88 	bgt-    cr7,12480 <__fpcmp_parts_d+0x48>
   124fc:	7f 88 50 40 	cmplw   cr7,r8,r10
   12500:	41 bd 00 14 	bgt+    cr7,12514 <__fpcmp_parts_d+0xdc>
   12504:	7f 88 50 00 	cmpw    cr7,r8,r10
   12508:	40 9e 00 18 	bne-    cr7,12520 <__fpcmp_parts_d+0xe8>
   1250c:	7f 86 38 40 	cmplw   cr7,r6,r7
   12510:	40 9d 00 10 	ble-    cr7,12520 <__fpcmp_parts_d+0xe8>
   12514:	2f 89 00 00 	cmpwi   cr7,r9,0
   12518:	41 9e ff 8c 	beq+    cr7,124a4 <__fpcmp_parts_d+0x6c>
   1251c:	4b ff ff 6c 	b       12488 <__fpcmp_parts_d+0x50>
   12520:	38 60 00 00 	li      r3,0
   12524:	4e 80 00 20 	blr
   12528:	2f 8a 00 04 	cmpwi   cr7,r10,4
   1252c:	40 9e ff 80 	bne+    cr7,124ac <__fpcmp_parts_d+0x74>
   12530:	81 44 00 04 	lwz     r10,4(r4)
   12534:	81 23 00 04 	lwz     r9,4(r3)
   12538:	7c 69 50 50 	subf    r3,r9,r10
   1253c:	4e 80 00 20 	blr

00012540 <__lshrdi3>:
   12540:	2c 05 00 00 	cmpwi   r5,0
   12544:	4d 82 00 20 	beqlr   
   12548:	21 45 00 20 	subfic  r10,r5,32
   1254c:	2f 8a 00 00 	cmpwi   cr7,r10,0
   12550:	40 9d 00 1c 	ble-    cr7,1256c <__lshrdi3+0x2c>
   12554:	7c 6a 50 30 	slw     r10,r3,r10
   12558:	7c 84 2c 30 	srw     r4,r4,r5
   1255c:	7c 69 2c 30 	srw     r9,r3,r5
   12560:	7d 44 23 78 	or      r4,r10,r4
   12564:	7d 23 4b 78 	mr      r3,r9
   12568:	4e 80 00 20 	blr
   1256c:	7c 8a 00 d0 	neg     r4,r10
   12570:	39 20 00 00 	li      r9,0
   12574:	7c 64 24 30 	srw     r4,r3,r4
   12578:	7d 23 4b 78 	mr      r3,r9
   1257c:	4e 80 00 20 	blr

00012580 <__ashldi3>:
   12580:	2c 05 00 00 	cmpwi   r5,0
   12584:	4d 82 00 20 	beqlr   
   12588:	21 45 00 20 	subfic  r10,r5,32
   1258c:	2f 8a 00 00 	cmpwi   cr7,r10,0
   12590:	40 9d 00 1c 	ble-    cr7,125ac <__ashldi3+0x2c>
   12594:	7c 8a 54 30 	srw     r10,r4,r10
   12598:	7c 63 28 30 	slw     r3,r3,r5
   1259c:	7c 89 28 30 	slw     r9,r4,r5
   125a0:	7d 43 1b 78 	or      r3,r10,r3
   125a4:	7d 24 4b 78 	mr      r4,r9
   125a8:	4e 80 00 20 	blr
   125ac:	7c 6a 00 d0 	neg     r3,r10
   125b0:	39 20 00 00 	li      r9,0
   125b4:	7c 83 18 30 	slw     r3,r4,r3
   125b8:	7d 24 4b 78 	mr      r4,r9
   125bc:	4e 80 00 20 	blr

000125c0 <__pack_f>:
   125c0:	81 43 00 00 	lwz     r10,0(r3)
   125c4:	81 23 00 0c 	lwz     r9,12(r3)
   125c8:	2b 8a 00 01 	cmplwi  cr7,r10,1
   125cc:	81 03 00 04 	lwz     r8,4(r3)
   125d0:	40 9d 00 a4 	ble-    cr7,12674 <__pack_f+0xb4>
   125d4:	2f 8a 00 04 	cmpwi   cr7,r10,4
   125d8:	41 9e 00 90 	beq-    cr7,12668 <__pack_f+0xa8>
   125dc:	2f 8a 00 02 	cmpwi   cr7,r10,2
   125e0:	41 9e 00 50 	beq-    cr7,12630 <__pack_f+0x70>
   125e4:	2c 09 00 00 	cmpwi   r9,0
   125e8:	41 82 00 48 	beq-    12630 <__pack_f+0x70>
   125ec:	81 43 00 08 	lwz     r10,8(r3)
   125f0:	2f 8a ff 82 	cmpwi   cr7,r10,-126
   125f4:	41 9c 00 90 	blt-    cr7,12684 <__pack_f+0xc4>
   125f8:	2f 8a 00 7f 	cmpwi   cr7,r10,127
   125fc:	41 9d 00 6c 	bgt-    cr7,12668 <__pack_f+0xa8>
   12600:	55 27 06 7e 	clrlwi  r7,r9,25
   12604:	2f 87 00 40 	cmpwi   cr7,r7,64
   12608:	41 9e 00 40 	beq-    cr7,12648 <__pack_f+0x88>
   1260c:	35 29 00 3f 	addic.  r9,r9,63
   12610:	41 80 00 4c 	blt-    1265c <__pack_f+0x9c>
   12614:	39 4a 00 7f 	addi    r10,r10,127
   12618:	55 4a b8 10 	rlwinm  r10,r10,23,0,8
   1261c:	55 29 ca 7e 	rlwinm  r9,r9,25,9,31
   12620:	7d 29 53 78 	or      r9,r9,r10
   12624:	55 03 f8 00 	rlwinm  r3,r8,31,0,0
   12628:	7d 23 1b 78 	or      r3,r9,r3
   1262c:	4e 80 00 20 	blr
   12630:	39 40 00 00 	li      r10,0
   12634:	39 20 00 00 	li      r9,0
   12638:	7d 29 53 78 	or      r9,r9,r10
   1263c:	55 03 f8 00 	rlwinm  r3,r8,31,0,0
   12640:	7d 23 1b 78 	or      r3,r9,r3
   12644:	4e 80 00 20 	blr
   12648:	55 26 cf fe 	rlwinm  r6,r9,25,31,31
   1264c:	2f 86 00 00 	cmpwi   cr7,r6,0
   12650:	41 be ff c0 	beq-    cr7,12610 <__pack_f+0x50>
   12654:	35 29 00 40 	addic.  r9,r9,64
   12658:	40 80 ff bc 	bge+    12614 <__pack_f+0x54>
   1265c:	55 29 f8 7e 	rlwinm  r9,r9,31,1,31
   12660:	39 4a 00 80 	addi    r10,r10,128
   12664:	4b ff ff b4 	b       12618 <__pack_f+0x58>
   12668:	3d 40 7f 80 	lis     r10,32640
   1266c:	39 20 00 00 	li      r9,0
   12670:	4b ff ff c8 	b       12638 <__pack_f+0x78>
   12674:	55 29 02 7e 	clrlwi  r9,r9,9
   12678:	65 29 00 10 	oris    r9,r9,16
   1267c:	3d 40 7f 80 	lis     r10,32640
   12680:	4b ff ff b8 	b       12638 <__pack_f+0x78>
   12684:	21 4a ff 82 	subfic  r10,r10,-126
   12688:	2f 8a 00 19 	cmpwi   cr7,r10,25
   1268c:	41 9d 00 60 	bgt-    cr7,126ec <__pack_f+0x12c>
   12690:	38 e0 00 01 	li      r7,1
   12694:	7c e7 50 30 	slw     r7,r7,r10
   12698:	38 e7 ff ff 	addi    r7,r7,-1
   1269c:	7c e6 48 39 	and.    r6,r7,r9
   126a0:	7d 29 54 30 	srw     r9,r9,r10
   126a4:	7c e0 00 26 	mfcr    r7
   126a8:	54 e7 1f fe 	rlwinm  r7,r7,3,31,31
   126ac:	68 e7 00 01 	xori    r7,r7,1
   126b0:	7c e9 4b 78 	or      r9,r7,r9
   126b4:	55 2a 06 7e 	clrlwi  r10,r9,25
   126b8:	2f 8a 00 40 	cmpwi   cr7,r10,64
   126bc:	40 9e 00 34 	bne-    cr7,126f0 <__pack_f+0x130>
   126c0:	71 27 00 80 	andi.   r7,r9,128
   126c4:	41 82 00 08 	beq-    126cc <__pack_f+0x10c>
   126c8:	39 29 00 40 	addi    r9,r9,64
   126cc:	3d 40 3f ff 	lis     r10,16383
   126d0:	61 4a ff ff 	ori     r10,r10,65535
   126d4:	7d 49 50 10 	subfc   r10,r9,r10
   126d8:	7d 4a 51 10 	subfe   r10,r10,r10
   126dc:	7d 4a 00 d0 	neg     r10,r10
   126e0:	55 29 ca 7e 	rlwinm  r9,r9,25,9,31
   126e4:	55 4a b8 10 	rlwinm  r10,r10,23,0,8
   126e8:	4b ff ff 50 	b       12638 <__pack_f+0x78>
   126ec:	39 20 00 00 	li      r9,0
   126f0:	39 29 00 3f 	addi    r9,r9,63
   126f4:	4b ff ff d8 	b       126cc <__pack_f+0x10c>

000126f8 <main>:
   126f8:	94 21 ff e0 	stwu    r1,-32(r1)
   126fc:	7c 08 02 a6 	mflr    r0
   12700:	90 01 00 24 	stw     r0,36(r1)
   12704:	93 e1 00 1c 	stw     r31,28(r1)
   12708:	7c 3f 0b 78 	mr      r31,r1
   1270c:	90 7f 00 08 	stw     r3,8(r31)
   12710:	90 9f 00 0c 	stw     r4,12(r31)
   12714:	4b fe d9 39 	bl      4c <__eabi>
   12718:	4b fe dc dd 	bl      3f4 <clear_wdg>
   1271c:	48 00 00 35 	bl      12750 <init_modes_and_clocks>
   12720:	4b fe dd 2d 	bl      44c <init_interrupt_controller>
   12724:	48 00 26 91 	bl      14db4 <init_app>
   12728:	48 00 02 2d 	bl      12954 <start_core1>
   1272c:	48 00 27 79 	bl      14ea4 <run_app>
   12730:	39 20 00 00 	li      r9,0
   12734:	7d 23 4b 78 	mr      r3,r9
   12738:	39 7f 00 20 	addi    r11,r31,32
   1273c:	80 0b 00 04 	lwz     r0,4(r11)
   12740:	7c 08 03 a6 	mtlr    r0
   12744:	83 eb ff fc 	lwz     r31,-4(r11)
   12748:	7d 61 5b 78 	mr      r1,r11
   1274c:	4e 80 00 20 	blr

00012750 <init_modes_and_clocks>:
   12750:	94 21 ff f0 	stwu    r1,-16(r1)
   12754:	93 e1 00 0c 	stw     r31,12(r1)
   12758:	7c 3f 0b 78 	mr      r31,r1
   1275c:	3d 20 c3 fe 	lis     r9,-15362
   12760:	61 29 40 00 	ori     r9,r9,16384
   12764:	39 40 ff ff 	li      r10,-1
   12768:	b1 49 00 00 	sth     r10,0(r9)
   1276c:	3d 20 c3 fd 	lis     r9,-15363
   12770:	61 29 c0 00 	ori     r9,r9,49152
   12774:	39 40 00 0f 	li      r10,15
   12778:	91 49 00 0c 	stw     r10,12(r9)
   1277c:	3d 20 c3 fe 	lis     r9,-15362
   12780:	39 40 00 02 	li      r10,2
   12784:	99 49 03 74 	stb     r10,884(r9)
   12788:	3d 20 c3 fe 	lis     r9,-15362
   1278c:	39 40 00 01 	li      r10,1
   12790:	91 49 03 70 	stw     r10,880(r9)
   12794:	3d 20 c3 fd 	lis     r9,-15363
   12798:	61 29 c0 00 	ori     r9,r9,49152
   1279c:	39 40 05 ff 	li      r10,1535
   127a0:	91 49 00 08 	stw     r10,8(r9)
   127a4:	3d 20 c3 fd 	lis     r9,-15363
   127a8:	61 29 c0 00 	ori     r9,r9,49152
   127ac:	3d 40 00 1f 	lis     r10,31
   127b0:	61 4a 00 32 	ori     r10,r10,50
   127b4:	91 49 00 2c 	stw     r10,44(r9)
   127b8:	3d 20 c3 fd 	lis     r9,-15363
   127bc:	61 29 c0 00 	ori     r9,r9,49152
   127c0:	39 40 00 fe 	li      r10,254
   127c4:	91 49 00 80 	stw     r10,128(r9)
   127c8:	3d 20 c3 fd 	lis     r9,-15363
   127cc:	61 29 c0 00 	ori     r9,r9,49152
   127d0:	39 40 05 00 	li      r10,1280
   127d4:	91 49 00 a0 	stw     r10,160(r9)
   127d8:	3d 20 c3 fe 	lis     r9,-15362
   127dc:	39 40 00 00 	li      r10,0
   127e0:	91 49 03 80 	stw     r10,896(r9)
   127e4:	3d 20 c3 fe 	lis     r9,-15362
   127e8:	39 40 00 00 	li      r10,0
   127ec:	91 49 03 88 	stw     r10,904(r9)
   127f0:	3d 20 c3 fe 	lis     r9,-15362
   127f4:	39 40 00 00 	li      r10,0
   127f8:	91 49 03 90 	stw     r10,912(r9)
   127fc:	3d 20 c3 fe 	lis     r9,-15362
   12800:	39 40 ff 80 	li      r10,-128
   12804:	99 49 03 84 	stb     r10,900(r9)
   12808:	3d 20 c3 fe 	lis     r9,-15362
   1280c:	39 40 ff 80 	li      r10,-128
   12810:	99 49 03 85 	stb     r10,901(r9)
   12814:	3d 20 c3 fe 	lis     r9,-15362
   12818:	39 40 ff 80 	li      r10,-128
   1281c:	99 49 03 8c 	stb     r10,908(r9)
   12820:	3d 20 c3 fe 	lis     r9,-15362
   12824:	39 40 ff 80 	li      r10,-128
   12828:	99 49 03 94 	stb     r10,916(r9)
   1282c:	3d 20 c3 fe 	lis     r9,-15362
   12830:	61 29 01 00 	ori     r9,r9,256
   12834:	39 40 00 06 	li      r10,6
   12838:	91 49 00 00 	stw     r10,0(r9)
   1283c:	3d 20 c3 fe 	lis     r9,-15362
   12840:	61 29 01 00 	ori     r9,r9,256
   12844:	39 40 00 01 	li      r10,1
   12848:	91 49 00 0c 	stw     r10,12(r9)
   1284c:	3d 20 c3 fe 	lis     r9,-15362
   12850:	61 29 01 00 	ori     r9,r9,256
   12854:	39 40 0f fe 	li      r10,4094
   12858:	91 49 00 08 	stw     r10,8(r9)
   1285c:	3d 20 c3 fd 	lis     r9,-15363
   12860:	61 29 c0 00 	ori     r9,r9,49152
   12864:	3d 40 30 00 	lis     r10,12288
   12868:	61 4a 5a f0 	ori     r10,r10,23280
   1286c:	91 49 00 04 	stw     r10,4(r9)
   12870:	3d 20 c3 fd 	lis     r9,-15363
   12874:	61 29 c0 00 	ori     r9,r9,49152
   12878:	3d 40 30 00 	lis     r10,12288
   1287c:	61 4a a5 0f 	ori     r10,r10,42255
   12880:	91 49 00 04 	stw     r10,4(r9)
   12884:	60 00 00 00 	nop
   12888:	3d 20 c3 fd 	lis     r9,-15363
   1288c:	61 29 c0 00 	ori     r9,r9,49152
   12890:	81 29 00 00 	lwz     r9,0(r9)
   12894:	55 29 01 08 	rlwinm  r9,r9,0,4,4
   12898:	2f 89 00 00 	cmpwi   cr7,r9,0
   1289c:	40 9e ff ec 	bne+    cr7,12888 <init_modes_and_clocks+0x138>
   128a0:	3d 20 c3 fe 	lis     r9,-15362
   128a4:	89 49 03 98 	lbz     r10,920(r9)
   128a8:	55 4a 00 36 	rlwinm  r10,r10,0,0,27
   128ac:	61 4a 00 01 	ori     r10,r10,1
   128b0:	99 49 03 98 	stb     r10,920(r9)
   128b4:	3d 20 c3 fe 	lis     r9,-15362
   128b8:	89 49 03 a0 	lbz     r10,928(r9)
   128bc:	55 4a 00 36 	rlwinm  r10,r10,0,0,27
   128c0:	61 4a 00 01 	ori     r10,r10,1
   128c4:	99 49 03 a0 	stb     r10,928(r9)
   128c8:	3d 20 c3 fe 	lis     r9,-15362
   128cc:	61 29 00 a0 	ori     r9,r9,160
   128d0:	3d 40 11 28 	lis     r10,4392
   128d4:	61 4a 00 41 	ori     r10,r10,65
   128d8:	91 49 00 00 	stw     r10,0(r9)
   128dc:	3d 20 c3 fd 	lis     r9,-15363
   128e0:	61 29 c0 00 	ori     r9,r9,49152
   128e4:	3d 40 00 1f 	lis     r10,31
   128e8:	61 4a 00 f4 	ori     r10,r10,244
   128ec:	91 49 00 2c 	stw     r10,44(r9)
   128f0:	3d 20 c3 fd 	lis     r9,-15363
   128f4:	61 29 c0 00 	ori     r9,r9,49152
   128f8:	3d 40 30 00 	lis     r10,12288
   128fc:	61 4a 5a f0 	ori     r10,r10,23280
   12900:	91 49 00 04 	stw     r10,4(r9)
   12904:	3d 20 c3 fd 	lis     r9,-15363
   12908:	61 29 c0 00 	ori     r9,r9,49152
   1290c:	3d 40 30 00 	lis     r10,12288
   12910:	61 4a a5 0f 	ori     r10,r10,42255
   12914:	91 49 00 04 	stw     r10,4(r9)
   12918:	60 00 00 00 	nop
   1291c:	3d 20 c3 fd 	lis     r9,-15363
   12920:	61 29 c0 00 	ori     r9,r9,49152
   12924:	81 29 00 00 	lwz     r9,0(r9)
   12928:	55 29 01 08 	rlwinm  r9,r9,0,4,4
   1292c:	2f 89 00 00 	cmpwi   cr7,r9,0
   12930:	40 9e ff ec 	bne+    cr7,1291c <init_modes_and_clocks+0x1cc>
   12934:	3d 20 c3 fd 	lis     r9,-15363
   12938:	61 29 80 00 	ori     r9,r9,32768
   1293c:	39 40 00 02 	li      r10,2
   12940:	b1 49 00 06 	sth     r10,6(r9)
   12944:	39 7f 00 10 	addi    r11,r31,16
   12948:	83 eb ff fc 	lwz     r31,-4(r11)
   1294c:	7d 61 5b 78 	mr      r1,r11
   12950:	4e 80 00 20 	blr

00012954 <start_core1>:
   12954:	94 21 ff f0 	stwu    r1,-16(r1)
   12958:	93 e1 00 0c 	stw     r31,12(r1)
   1295c:	7c 3f 0b 78 	mr      r31,r1
   12960:	3d 20 c3 fd 	lis     r9,-15363
   12964:	61 2a 80 00 	ori     r10,r9,32768
   12968:	81 2a 00 18 	lwz     r9,24(r10)
   1296c:	39 00 10 00 	li      r8,4096
   12970:	51 09 10 3a 	rlwimi  r9,r8,2,0,29
   12974:	91 2a 00 18 	stw     r9,24(r10)
   12978:	3d 20 c3 fd 	lis     r9,-15363
   1297c:	61 2a 80 00 	ori     r10,r9,32768
   12980:	81 2a 00 18 	lwz     r9,24(r10)
   12984:	39 00 00 00 	li      r8,0
   12988:	51 09 0f bc 	rlwimi  r9,r8,1,30,30
   1298c:	91 2a 00 18 	stw     r9,24(r10)
   12990:	3d 20 c3 fd 	lis     r9,-15363
   12994:	61 29 80 00 	ori     r9,r9,32768
   12998:	39 40 5a f0 	li      r10,23280
   1299c:	b1 49 00 1e 	sth     r10,30(r9)
   129a0:	3d 20 c3 fd 	lis     r9,-15363
   129a4:	61 29 80 00 	ori     r9,r9,32768
   129a8:	39 40 a5 0f 	li      r10,-23281
   129ac:	b1 49 00 1e 	sth     r10,30(r9)
   129b0:	39 7f 00 10 	addi    r11,r31,16
   129b4:	83 eb ff fc 	lwz     r31,-4(r11)
   129b8:	7d 61 5b 78 	mr      r1,r11
   129bc:	4e 80 00 20 	blr

000129c0 <initLEDs>:
   129c0:	94 21 ff f0 	stwu    r1,-16(r1)
   129c4:	93 e1 00 0c 	stw     r31,12(r1)
   129c8:	7c 3f 0b 78 	mr      r31,r1
   129cc:	3d 20 c3 f9 	lis     r9,-15367
   129d0:	39 40 02 00 	li      r10,512
   129d4:	b1 49 00 42 	sth     r10,66(r9)
   129d8:	3d 20 c3 f9 	lis     r9,-15367
   129dc:	39 40 02 00 	li      r10,512
   129e0:	b1 49 00 40 	sth     r10,64(r9)
   129e4:	3d 40 c3 f9 	lis     r10,-15367
   129e8:	81 2a 06 00 	lwz     r9,1536(r10)
   129ec:	39 00 00 01 	li      r8,1
   129f0:	51 09 83 de 	rlwimi  r9,r8,16,15,15
   129f4:	91 2a 06 00 	stw     r9,1536(r10)
   129f8:	3d 40 c3 f9 	lis     r10,-15367
   129fc:	81 2a 06 00 	lwz     r9,1536(r10)
   12a00:	39 00 00 01 	li      r8,1
   12a04:	51 09 c1 ce 	rlwimi  r9,r8,24,7,7
   12a08:	91 2a 06 00 	stw     r9,1536(r10)
   12a0c:	39 7f 00 10 	addi    r11,r31,16
   12a10:	83 eb ff fc 	lwz     r31,-4(r11)
   12a14:	7d 61 5b 78 	mr      r1,r11
   12a18:	4e 80 00 20 	blr

00012a1c <initSWIRQs>:
   12a1c:	94 21 ff f0 	stwu    r1,-16(r1)
   12a20:	93 e1 00 0c 	stw     r31,12(r1)
   12a24:	7c 3f 0b 78 	mr      r31,r1
   12a28:	3d 20 ff f4 	lis     r9,-12
   12a2c:	61 29 80 00 	ori     r9,r9,32768
   12a30:	39 40 00 01 	li      r10,1
   12a34:	99 49 00 43 	stb     r10,67(r9)
   12a38:	39 7f 00 10 	addi    r11,r31,16
   12a3c:	83 eb ff fc 	lwz     r31,-4(r11)
   12a40:	7d 61 5b 78 	mr      r1,r11
   12a44:	4e 80 00 20 	blr

00012a48 <initETIMER>:
   12a48:	94 21 ff f0 	stwu    r1,-16(r1)
   12a4c:	93 e1 00 0c 	stw     r31,12(r1)
   12a50:	7c 3f 0b 78 	mr      r31,r1
   12a54:	3d 20 c3 f9 	lis     r9,-15367
   12a58:	a1 49 00 7c 	lhz     r10,124(r9)
   12a5c:	55 4a 05 a6 	rlwinm  r10,r10,0,22,19
   12a60:	61 4a 04 00 	ori     r10,r10,1024
   12a64:	b1 49 00 7c 	sth     r10,124(r9)
   12a68:	3d 20 c3 f9 	lis     r9,-15367
   12a6c:	a1 49 00 7c 	lhz     r10,124(r9)
   12a70:	55 4a 05 ea 	rlwinm  r10,r10,0,23,21
   12a74:	b1 49 00 7c 	sth     r10,124(r9)
   12a78:	3d 20 c3 f9 	lis     r9,-15367
   12a7c:	a1 49 00 7c 	lhz     r10,124(r9)
   12a80:	61 4a 01 00 	ori     r10,r10,256
   12a84:	b1 49 00 7c 	sth     r10,124(r9)
   12a88:	3d 40 c3 f9 	lis     r10,-15367
   12a8c:	81 2a 05 04 	lwz     r9,1284(r10)
   12a90:	39 00 00 02 	li      r8,2
   12a94:	51 09 07 3e 	rlwimi  r9,r8,0,28,31
   12a98:	91 2a 05 04 	stw     r9,1284(r10)
   12a9c:	3d 20 ff e1 	lis     r9,-31
   12aa0:	61 29 80 00 	ori     r9,r9,32768
   12aa4:	a1 49 01 0c 	lhz     r10,268(r9)
   12aa8:	61 4a 00 01 	ori     r10,r10,1
   12aac:	b1 49 01 0c 	sth     r10,268(r9)
   12ab0:	3d 20 ff e1 	lis     r9,-31
   12ab4:	61 29 80 00 	ori     r9,r9,32768
   12ab8:	a1 49 00 0e 	lhz     r10,14(r9)
   12abc:	55 4a 04 fe 	clrlwi  r10,r10,19
   12ac0:	61 4a 20 00 	ori     r10,r10,8192
   12ac4:	b1 49 00 0e 	sth     r10,14(r9)
   12ac8:	3d 20 ff e1 	lis     r9,-31
   12acc:	61 29 80 00 	ori     r9,r9,32768
   12ad0:	a1 49 00 0e 	lhz     r10,14(r9)
   12ad4:	55 4a 06 24 	rlwinm  r10,r10,0,24,18
   12ad8:	61 4a 1e 00 	ori     r10,r10,7680
   12adc:	b1 49 00 0e 	sth     r10,14(r9)
   12ae0:	3d 20 ff e1 	lis     r9,-31
   12ae4:	61 29 80 00 	ori     r9,r9,32768
   12ae8:	a1 49 00 0e 	lhz     r10,14(r9)
   12aec:	55 4a 06 6e 	rlwinm  r10,r10,0,25,23
   12af0:	b1 49 00 0e 	sth     r10,14(r9)
   12af4:	3d 20 ff e1 	lis     r9,-31
   12af8:	61 29 80 00 	ori     r9,r9,32768
   12afc:	a1 49 00 0e 	lhz     r10,14(r9)
   12b00:	55 4a 06 b0 	rlwinm  r10,r10,0,26,24
   12b04:	b1 49 00 0e 	sth     r10,14(r9)
   12b08:	3d 20 ff e1 	lis     r9,-31
   12b0c:	61 29 80 00 	ori     r9,r9,32768
   12b10:	a1 49 00 0e 	lhz     r10,14(r9)
   12b14:	55 4a 06 f2 	rlwinm  r10,r10,0,27,25
   12b18:	b1 49 00 0e 	sth     r10,14(r9)
   12b1c:	3d 20 ff e1 	lis     r9,-31
   12b20:	61 29 80 00 	ori     r9,r9,32768
   12b24:	a1 49 00 0e 	lhz     r10,14(r9)
   12b28:	55 4a 00 34 	rlwinm  r10,r10,0,0,26
   12b2c:	61 4a 00 02 	ori     r10,r10,2
   12b30:	b1 49 00 0e 	sth     r10,14(r9)
   12b34:	3d 20 ff e1 	lis     r9,-31
   12b38:	61 29 80 00 	ori     r9,r9,32768
   12b3c:	a1 49 00 16 	lhz     r10,22(r9)
   12b40:	61 4a 00 40 	ori     r10,r10,64
   12b44:	b1 49 00 16 	sth     r10,22(r9)
   12b48:	3d 20 ff e1 	lis     r9,-31
   12b4c:	61 29 80 00 	ori     r9,r9,32768
   12b50:	a1 49 00 16 	lhz     r10,22(r9)
   12b54:	61 4a 00 08 	ori     r10,r10,8
   12b58:	b1 49 00 16 	sth     r10,22(r9)
   12b5c:	3d 20 ff e1 	lis     r9,-31
   12b60:	61 29 80 00 	ori     r9,r9,32768
   12b64:	a1 49 00 1c 	lhz     r10,28(r9)
   12b68:	61 4a 00 30 	ori     r10,r10,48
   12b6c:	b1 49 00 1c 	sth     r10,28(r9)
   12b70:	3d 20 ff e1 	lis     r9,-31
   12b74:	61 29 80 00 	ori     r9,r9,32768
   12b78:	a1 49 00 1c 	lhz     r10,28(r9)
   12b7c:	61 4a 00 01 	ori     r10,r10,1
   12b80:	b1 49 00 1c 	sth     r10,28(r9)
   12b84:	3d 20 ff e1 	lis     r9,-31
   12b88:	61 29 80 00 	ori     r9,r9,32768
   12b8c:	a1 49 00 12 	lhz     r10,18(r9)
   12b90:	55 4a 04 e0 	rlwinm  r10,r10,0,19,16
   12b94:	61 4a 20 00 	ori     r10,r10,8192
   12b98:	b1 49 00 12 	sth     r10,18(r9)
   12b9c:	3d 20 ff e1 	lis     r9,-31
   12ba0:	61 29 80 00 	ori     r9,r9,32768
   12ba4:	39 40 00 00 	li      r10,0
   12ba8:	99 49 00 1f 	stb     r10,31(r9)
   12bac:	3d 20 ff e1 	lis     r9,-31
   12bb0:	61 29 80 00 	ori     r9,r9,32768
   12bb4:	a1 49 00 1e 	lhz     r10,30(r9)
   12bb8:	55 4a 06 28 	rlwinm  r10,r10,0,24,20
   12bbc:	b1 49 00 1e 	sth     r10,30(r9)
   12bc0:	3d 20 ff e1 	lis     r9,-31
   12bc4:	61 29 80 20 	ori     r9,r9,32800
   12bc8:	a1 49 00 0e 	lhz     r10,14(r9)
   12bcc:	55 4a 04 fe 	clrlwi  r10,r10,19
   12bd0:	61 4a 20 00 	ori     r10,r10,8192
   12bd4:	b1 49 00 0e 	sth     r10,14(r9)
   12bd8:	3d 20 ff e1 	lis     r9,-31
   12bdc:	61 29 80 20 	ori     r9,r9,32800
   12be0:	a1 49 00 0e 	lhz     r10,14(r9)
   12be4:	55 4a 06 24 	rlwinm  r10,r10,0,24,18
   12be8:	61 4a 1e 00 	ori     r10,r10,7680
   12bec:	b1 49 00 0e 	sth     r10,14(r9)
   12bf0:	3d 20 ff e1 	lis     r9,-31
   12bf4:	61 29 80 20 	ori     r9,r9,32800
   12bf8:	a1 49 00 0e 	lhz     r10,14(r9)
   12bfc:	55 4a 06 6e 	rlwinm  r10,r10,0,25,23
   12c00:	b1 49 00 0e 	sth     r10,14(r9)
   12c04:	3d 20 ff e1 	lis     r9,-31
   12c08:	61 29 80 20 	ori     r9,r9,32800
   12c0c:	a1 49 00 0e 	lhz     r10,14(r9)
   12c10:	55 4a 06 b0 	rlwinm  r10,r10,0,26,24
   12c14:	b1 49 00 0e 	sth     r10,14(r9)
   12c18:	3d 20 ff e1 	lis     r9,-31
   12c1c:	61 29 80 20 	ori     r9,r9,32800
   12c20:	a1 49 00 0e 	lhz     r10,14(r9)
   12c24:	55 4a 06 f2 	rlwinm  r10,r10,0,27,25
   12c28:	b1 49 00 0e 	sth     r10,14(r9)
   12c2c:	3d 20 ff e1 	lis     r9,-31
   12c30:	61 29 80 20 	ori     r9,r9,32800
   12c34:	a1 49 00 0e 	lhz     r10,14(r9)
   12c38:	55 4a 00 34 	rlwinm  r10,r10,0,0,26
   12c3c:	61 4a 00 03 	ori     r10,r10,3
   12c40:	b1 49 00 0e 	sth     r10,14(r9)
   12c44:	3d 20 ff e1 	lis     r9,-31
   12c48:	61 29 80 20 	ori     r9,r9,32800
   12c4c:	a1 49 00 16 	lhz     r10,22(r9)
   12c50:	61 4a 00 40 	ori     r10,r10,64
   12c54:	b1 49 00 16 	sth     r10,22(r9)
   12c58:	3d 20 ff e1 	lis     r9,-31
   12c5c:	61 29 80 20 	ori     r9,r9,32800
   12c60:	a1 49 00 1c 	lhz     r10,28(r9)
   12c64:	61 4a 00 30 	ori     r10,r10,48
   12c68:	b1 49 00 1c 	sth     r10,28(r9)
   12c6c:	3d 20 ff e1 	lis     r9,-31
   12c70:	61 29 80 20 	ori     r9,r9,32800
   12c74:	a1 49 00 1c 	lhz     r10,28(r9)
   12c78:	61 4a 00 01 	ori     r10,r10,1
   12c7c:	b1 49 00 1c 	sth     r10,28(r9)
   12c80:	3d 20 ff e1 	lis     r9,-31
   12c84:	61 29 80 20 	ori     r9,r9,32800
   12c88:	a1 49 00 12 	lhz     r10,18(r9)
   12c8c:	55 4a 04 e0 	rlwinm  r10,r10,0,19,16
   12c90:	61 4a 20 00 	ori     r10,r10,8192
   12c94:	b1 49 00 12 	sth     r10,18(r9)
   12c98:	3d 20 ff e1 	lis     r9,-31
   12c9c:	61 29 80 20 	ori     r9,r9,32800
   12ca0:	39 40 00 00 	li      r10,0
   12ca4:	99 49 00 1f 	stb     r10,31(r9)
   12ca8:	3d 20 ff e1 	lis     r9,-31
   12cac:	61 29 80 20 	ori     r9,r9,32800
   12cb0:	a1 49 00 1e 	lhz     r10,30(r9)
   12cb4:	55 4a 06 28 	rlwinm  r10,r10,0,24,20
   12cb8:	b1 49 00 1e 	sth     r10,30(r9)
   12cbc:	3d 20 ff e1 	lis     r9,-31
   12cc0:	61 29 80 40 	ori     r9,r9,32832
   12cc4:	a1 49 00 0e 	lhz     r10,14(r9)
   12cc8:	55 4a 04 fe 	clrlwi  r10,r10,19
   12ccc:	61 4a 20 00 	ori     r10,r10,8192
   12cd0:	b1 49 00 0e 	sth     r10,14(r9)
   12cd4:	3d 20 ff e1 	lis     r9,-31
   12cd8:	61 29 80 40 	ori     r9,r9,32832
   12cdc:	a1 49 00 0e 	lhz     r10,14(r9)
   12ce0:	55 4a 06 24 	rlwinm  r10,r10,0,24,18
   12ce4:	61 4a 1e 00 	ori     r10,r10,7680
   12ce8:	b1 49 00 0e 	sth     r10,14(r9)
   12cec:	3d 20 ff e1 	lis     r9,-31
   12cf0:	61 29 80 40 	ori     r9,r9,32832
   12cf4:	a1 49 00 0e 	lhz     r10,14(r9)
   12cf8:	55 4a 06 6e 	rlwinm  r10,r10,0,25,23
   12cfc:	b1 49 00 0e 	sth     r10,14(r9)
   12d00:	3d 20 ff e1 	lis     r9,-31
   12d04:	61 29 80 40 	ori     r9,r9,32832
   12d08:	a1 49 00 0e 	lhz     r10,14(r9)
   12d0c:	55 4a 06 b0 	rlwinm  r10,r10,0,26,24
   12d10:	b1 49 00 0e 	sth     r10,14(r9)
   12d14:	3d 20 ff e1 	lis     r9,-31
   12d18:	61 29 80 40 	ori     r9,r9,32832
   12d1c:	a1 49 00 0e 	lhz     r10,14(r9)
   12d20:	55 4a 06 f2 	rlwinm  r10,r10,0,27,25
   12d24:	b1 49 00 0e 	sth     r10,14(r9)
   12d28:	3d 20 ff e1 	lis     r9,-31
   12d2c:	61 29 80 40 	ori     r9,r9,32832
   12d30:	a1 49 00 0e 	lhz     r10,14(r9)
   12d34:	55 4a 00 34 	rlwinm  r10,r10,0,0,26
   12d38:	61 4a 00 04 	ori     r10,r10,4
   12d3c:	b1 49 00 0e 	sth     r10,14(r9)
   12d40:	3d 20 ff e1 	lis     r9,-31
   12d44:	61 29 80 40 	ori     r9,r9,32832
   12d48:	a1 49 00 16 	lhz     r10,22(r9)
   12d4c:	61 4a 00 40 	ori     r10,r10,64
   12d50:	b1 49 00 16 	sth     r10,22(r9)
   12d54:	3d 20 ff e1 	lis     r9,-31
   12d58:	61 29 80 40 	ori     r9,r9,32832
   12d5c:	a1 49 00 1c 	lhz     r10,28(r9)
   12d60:	61 4a 00 30 	ori     r10,r10,48
   12d64:	b1 49 00 1c 	sth     r10,28(r9)
   12d68:	3d 20 ff e1 	lis     r9,-31
   12d6c:	61 29 80 40 	ori     r9,r9,32832
   12d70:	a1 49 00 1c 	lhz     r10,28(r9)
   12d74:	61 4a 00 01 	ori     r10,r10,1
   12d78:	b1 49 00 1c 	sth     r10,28(r9)
   12d7c:	3d 20 ff e1 	lis     r9,-31
   12d80:	61 29 80 40 	ori     r9,r9,32832
   12d84:	a1 49 00 12 	lhz     r10,18(r9)
   12d88:	55 4a 04 e0 	rlwinm  r10,r10,0,19,16
   12d8c:	61 4a 20 00 	ori     r10,r10,8192
   12d90:	b1 49 00 12 	sth     r10,18(r9)
   12d94:	3d 20 ff e1 	lis     r9,-31
   12d98:	61 29 80 40 	ori     r9,r9,32832
   12d9c:	39 40 00 00 	li      r10,0
   12da0:	99 49 00 1f 	stb     r10,31(r9)
   12da4:	3d 20 ff e1 	lis     r9,-31
   12da8:	61 29 80 40 	ori     r9,r9,32832
   12dac:	a1 49 00 1e 	lhz     r10,30(r9)
   12db0:	55 4a 06 28 	rlwinm  r10,r10,0,24,20
   12db4:	b1 49 00 1e 	sth     r10,30(r9)
   12db8:	3d 20 ff f4 	lis     r9,-12
   12dbc:	61 29 80 00 	ori     r9,r9,32768
   12dc0:	39 40 00 05 	li      r10,5
   12dc4:	99 49 00 dd 	stb     r10,221(r9)
   12dc8:	3d 20 ff f4 	lis     r9,-12
   12dcc:	61 29 80 00 	ori     r9,r9,32768
   12dd0:	39 40 00 06 	li      r10,6
   12dd4:	99 49 00 de 	stb     r10,222(r9)
   12dd8:	3d 20 ff f4 	lis     r9,-12
   12ddc:	61 29 80 00 	ori     r9,r9,32768
   12de0:	39 40 00 07 	li      r10,7
   12de4:	99 49 00 df 	stb     r10,223(r9)
   12de8:	39 7f 00 10 	addi    r11,r31,16
   12dec:	83 eb ff fc 	lwz     r31,-4(r11)
   12df0:	7d 61 5b 78 	mr      r1,r11
   12df4:	4e 80 00 20 	blr

00012df8 <initHall>:
   12df8:	94 21 ff f0 	stwu    r1,-16(r1)
   12dfc:	93 e1 00 0c 	stw     r31,12(r1)
   12e00:	7c 3f 0b 78 	mr      r31,r1
   12e04:	3d 20 c3 f9 	lis     r9,-15367
   12e08:	81 29 08 00 	lwz     r9,2048(r9)
   12e0c:	55 29 05 ee 	rlwinm  r9,r9,0,23,23
   12e10:	2f 89 00 00 	cmpwi   cr7,r9,0
   12e14:	39 20 00 00 	li      r9,0
   12e18:	39 40 00 01 	li      r10,1
   12e1c:	7d 2a 4f 9e 	.long 0x7d2a4f9e
   12e20:	55 29 06 3e 	clrlwi  r9,r9,24
   12e24:	7d 2a 4b 78 	mr      r10,r9
   12e28:	3d 20 40 00 	lis     r9,16384
   12e2c:	39 29 00 28 	addi    r9,r9,40
   12e30:	91 49 00 00 	stw     r10,0(r9)
   12e34:	3d 20 c3 f9 	lis     r9,-15367
   12e38:	81 29 08 00 	lwz     r9,2048(r9)
   12e3c:	55 29 07 fe 	clrlwi  r9,r9,31
   12e40:	2f 89 00 00 	cmpwi   cr7,r9,0
   12e44:	39 20 00 00 	li      r9,0
   12e48:	39 40 00 01 	li      r10,1
   12e4c:	7d 2a 4f 9e 	.long 0x7d2a4f9e
   12e50:	55 29 06 3e 	clrlwi  r9,r9,24
   12e54:	7d 2a 4b 78 	mr      r10,r9
   12e58:	3d 20 40 00 	lis     r9,16384
   12e5c:	39 29 00 28 	addi    r9,r9,40
   12e60:	91 49 00 04 	stw     r10,4(r9)
   12e64:	3d 20 c3 f9 	lis     r9,-15367
   12e68:	81 29 08 1c 	lwz     r9,2076(r9)
   12e6c:	55 29 05 ee 	rlwinm  r9,r9,0,23,23
   12e70:	2f 89 00 00 	cmpwi   cr7,r9,0
   12e74:	39 20 00 00 	li      r9,0
   12e78:	39 40 00 01 	li      r10,1
   12e7c:	7d 2a 4f 9e 	.long 0x7d2a4f9e
   12e80:	55 29 06 3e 	clrlwi  r9,r9,24
   12e84:	7d 2a 4b 78 	mr      r10,r9
   12e88:	3d 20 40 00 	lis     r9,16384
   12e8c:	39 29 00 28 	addi    r9,r9,40
   12e90:	91 49 00 08 	stw     r10,8(r9)
   12e94:	39 7f 00 10 	addi    r11,r31,16
   12e98:	83 eb ff fc 	lwz     r31,-4(r11)
   12e9c:	7d 61 5b 78 	mr      r1,r11
   12ea0:	4e 80 00 20 	blr

00012ea4 <initPWM>:
   12ea4:	94 21 ff f0 	stwu    r1,-16(r1)
   12ea8:	93 e1 00 0c 	stw     r31,12(r1)
   12eac:	7c 3f 0b 78 	mr      r31,r1
   12eb0:	3d 20 c3 f9 	lis     r9,-15367
   12eb4:	a1 49 00 56 	lhz     r10,86(r9)
   12eb8:	55 4a 05 a6 	rlwinm  r10,r10,0,22,19
   12ebc:	61 4a 08 00 	ori     r10,r10,2048
   12ec0:	b1 49 00 56 	sth     r10,86(r9)
   12ec4:	3d 20 c3 f9 	lis     r9,-15367
   12ec8:	a1 49 00 58 	lhz     r10,88(r9)
   12ecc:	55 4a 05 a6 	rlwinm  r10,r10,0,22,19
   12ed0:	61 4a 08 00 	ori     r10,r10,2048
   12ed4:	b1 49 00 58 	sth     r10,88(r9)
   12ed8:	3d 20 c3 f9 	lis     r9,-15367
   12edc:	a1 49 00 94 	lhz     r10,148(r9)
   12ee0:	61 4a 0c 00 	ori     r10,r10,3072
   12ee4:	b1 49 00 94 	sth     r10,148(r9)
   12ee8:	3d 20 c3 f9 	lis     r9,-15367
   12eec:	a1 49 00 b6 	lhz     r10,182(r9)
   12ef0:	55 4a 05 a6 	rlwinm  r10,r10,0,22,19
   12ef4:	61 4a 04 00 	ori     r10,r10,1024
   12ef8:	b1 49 00 b6 	sth     r10,182(r9)
   12efc:	3d 20 c3 f9 	lis     r9,-15367
   12f00:	a1 49 01 08 	lhz     r10,264(r9)
   12f04:	55 4a 05 a6 	rlwinm  r10,r10,0,22,19
   12f08:	61 4a 04 00 	ori     r10,r10,1024
   12f0c:	b1 49 01 08 	sth     r10,264(r9)
   12f10:	3d 20 c3 f9 	lis     r9,-15367
   12f14:	a1 49 01 0e 	lhz     r10,270(r9)
   12f18:	55 4a 05 a6 	rlwinm  r10,r10,0,22,19
   12f1c:	61 4a 04 00 	ori     r10,r10,1024
   12f20:	b1 49 01 0e 	sth     r10,270(r9)
   12f24:	3d 20 ff e2 	lis     r9,-30
   12f28:	61 29 40 00 	ori     r9,r9,16384
   12f2c:	a1 49 00 04 	lhz     r10,4(r9)
   12f30:	61 4a 20 00 	ori     r10,r10,8192
   12f34:	b1 49 00 04 	sth     r10,4(r9)
   12f38:	3d 20 ff e2 	lis     r9,-30
   12f3c:	61 29 40 00 	ori     r9,r9,16384
   12f40:	a1 49 00 06 	lhz     r10,6(r9)
   12f44:	55 4a 05 3e 	clrlwi  r10,r10,20
   12f48:	b1 49 00 06 	sth     r10,6(r9)
   12f4c:	3d 20 ff e2 	lis     r9,-30
   12f50:	61 29 40 00 	ori     r9,r9,16384
   12f54:	a1 49 00 06 	lhz     r10,6(r9)
   12f58:	61 4a 00 04 	ori     r10,r10,4
   12f5c:	b1 49 00 06 	sth     r10,6(r9)
   12f60:	3d 20 ff e2 	lis     r9,-30
   12f64:	61 29 40 00 	ori     r9,r9,16384
   12f68:	a1 49 00 06 	lhz     r10,6(r9)
   12f6c:	61 4a 08 00 	ori     r10,r10,2048
   12f70:	b1 49 00 06 	sth     r10,6(r9)
   12f74:	3d 20 ff e2 	lis     r9,-30
   12f78:	61 29 40 00 	ori     r9,r9,16384
   12f7c:	a1 49 00 06 	lhz     r10,6(r9)
   12f80:	61 4a 04 00 	ori     r10,r10,1024
   12f84:	b1 49 00 06 	sth     r10,6(r9)
   12f88:	3d 20 ff e2 	lis     r9,-30
   12f8c:	61 29 40 00 	ori     r9,r9,16384
   12f90:	a1 49 00 06 	lhz     r10,6(r9)
   12f94:	55 4a 07 30 	rlwinm  r10,r10,0,28,24
   12f98:	61 4a 00 20 	ori     r10,r10,32
   12f9c:	b1 49 00 06 	sth     r10,6(r9)
   12fa0:	3d 20 ff e2 	lis     r9,-30
   12fa4:	61 29 40 00 	ori     r9,r9,16384
   12fa8:	a1 49 00 04 	lhz     r10,4(r9)
   12fac:	61 4a 00 80 	ori     r10,r10,128
   12fb0:	b1 49 00 04 	sth     r10,4(r9)
   12fb4:	3d 20 ff e2 	lis     r9,-30
   12fb8:	61 29 40 00 	ori     r9,r9,16384
   12fbc:	39 40 00 32 	li      r10,50
   12fc0:	b1 49 00 08 	sth     r10,8(r9)
   12fc4:	3d 20 ff e2 	lis     r9,-30
   12fc8:	61 29 40 00 	ori     r9,r9,16384
   12fcc:	39 40 00 64 	li      r10,100
   12fd0:	b1 49 00 0a 	sth     r10,10(r9)
   12fd4:	3d 20 ff e2 	lis     r9,-30
   12fd8:	61 29 40 00 	ori     r9,r9,16384
   12fdc:	39 40 00 00 	li      r10,0
   12fe0:	b1 49 00 0c 	sth     r10,12(r9)
   12fe4:	3d 20 ff e2 	lis     r9,-30
   12fe8:	61 29 40 00 	ori     r9,r9,16384
   12fec:	39 40 00 00 	li      r10,0
   12ff0:	b1 49 00 0e 	sth     r10,14(r9)
   12ff4:	3d 20 ff e2 	lis     r9,-30
   12ff8:	61 29 40 00 	ori     r9,r9,16384
   12ffc:	39 40 00 00 	li      r10,0
   13000:	b1 49 00 10 	sth     r10,16(r9)
   13004:	3d 20 ff e2 	lis     r9,-30
   13008:	61 29 40 00 	ori     r9,r9,16384
   1300c:	39 40 00 00 	li      r10,0
   13010:	b1 49 00 12 	sth     r10,18(r9)
   13014:	3d 20 ff e2 	lis     r9,-30
   13018:	61 29 40 00 	ori     r9,r9,16384
   1301c:	a1 49 00 20 	lhz     r10,32(r9)
   13020:	55 4a 00 32 	rlwinm  r10,r10,0,0,25
   13024:	b1 49 00 20 	sth     r10,32(r9)
   13028:	3d 20 ff e2 	lis     r9,-30
   1302c:	61 29 40 00 	ori     r9,r9,16384
   13030:	a1 49 00 22 	lhz     r10,34(r9)
   13034:	55 4a 00 36 	rlwinm  r10,r10,0,0,27
   13038:	b1 49 00 22 	sth     r10,34(r9)
   1303c:	3d 20 ff e2 	lis     r9,-30
   13040:	61 29 40 00 	ori     r9,r9,16384
   13044:	a1 49 00 22 	lhz     r10,34(r9)
   13048:	55 4a 07 2e 	rlwinm  r10,r10,0,28,23
   1304c:	b1 49 00 22 	sth     r10,34(r9)
   13050:	3d 20 ff e2 	lis     r9,-30
   13054:	61 29 40 00 	ori     r9,r9,16384
   13058:	a1 49 00 1c 	lhz     r10,28(r9)
   1305c:	55 4a 05 24 	rlwinm  r10,r10,0,20,18
   13060:	b1 49 00 1c 	sth     r10,28(r9)
   13064:	3d 20 ff e2 	lis     r9,-30
   13068:	61 29 40 a0 	ori     r9,r9,16544
   1306c:	a1 49 00 04 	lhz     r10,4(r9)
   13070:	61 4a 20 00 	ori     r10,r10,8192
   13074:	b1 49 00 04 	sth     r10,4(r9)
   13078:	3d 20 ff e2 	lis     r9,-30
   1307c:	61 29 40 a0 	ori     r9,r9,16544
   13080:	a1 49 00 06 	lhz     r10,6(r9)
   13084:	55 4a 05 3e 	clrlwi  r10,r10,20
   13088:	b1 49 00 06 	sth     r10,6(r9)
   1308c:	3d 20 ff e2 	lis     r9,-30
   13090:	61 29 40 a0 	ori     r9,r9,16544
   13094:	a1 49 00 06 	lhz     r10,6(r9)
   13098:	61 4a 00 04 	ori     r10,r10,4
   1309c:	b1 49 00 06 	sth     r10,6(r9)
   130a0:	3d 20 ff e2 	lis     r9,-30
   130a4:	61 29 40 a0 	ori     r9,r9,16544
   130a8:	a1 49 00 06 	lhz     r10,6(r9)
   130ac:	61 4a 08 00 	ori     r10,r10,2048
   130b0:	b1 49 00 06 	sth     r10,6(r9)
   130b4:	3d 20 ff e2 	lis     r9,-30
   130b8:	61 29 40 a0 	ori     r9,r9,16544
   130bc:	a1 49 00 06 	lhz     r10,6(r9)
   130c0:	61 4a 04 00 	ori     r10,r10,1024
   130c4:	b1 49 00 06 	sth     r10,6(r9)
   130c8:	3d 20 ff e2 	lis     r9,-30
   130cc:	61 29 40 a0 	ori     r9,r9,16544
   130d0:	a1 49 00 06 	lhz     r10,6(r9)
   130d4:	55 4a 07 30 	rlwinm  r10,r10,0,28,24
   130d8:	61 4a 00 20 	ori     r10,r10,32
   130dc:	b1 49 00 06 	sth     r10,6(r9)
   130e0:	3d 20 ff e2 	lis     r9,-30
   130e4:	61 29 40 a0 	ori     r9,r9,16544
   130e8:	a1 49 00 04 	lhz     r10,4(r9)
   130ec:	61 4a 00 80 	ori     r10,r10,128
   130f0:	b1 49 00 04 	sth     r10,4(r9)
   130f4:	3d 20 ff e2 	lis     r9,-30
   130f8:	61 29 40 a0 	ori     r9,r9,16544
   130fc:	a1 49 00 04 	lhz     r10,4(r9)
   13100:	55 4a 07 72 	rlwinm  r10,r10,0,29,25
   13104:	61 4a 00 08 	ori     r10,r10,8
   13108:	b1 49 00 04 	sth     r10,4(r9)
   1310c:	3d 20 ff e2 	lis     r9,-30
   13110:	61 29 40 a0 	ori     r9,r9,16544
   13114:	39 40 00 32 	li      r10,50
   13118:	b1 49 00 08 	sth     r10,8(r9)
   1311c:	3d 20 ff e2 	lis     r9,-30
   13120:	61 29 40 a0 	ori     r9,r9,16544
   13124:	39 40 00 64 	li      r10,100
   13128:	b1 49 00 0a 	sth     r10,10(r9)
   1312c:	3d 20 ff e2 	lis     r9,-30
   13130:	61 29 40 a0 	ori     r9,r9,16544
   13134:	39 40 00 00 	li      r10,0
   13138:	b1 49 00 0c 	sth     r10,12(r9)
   1313c:	3d 20 ff e2 	lis     r9,-30
   13140:	61 29 40 a0 	ori     r9,r9,16544
   13144:	39 40 00 00 	li      r10,0
   13148:	b1 49 00 0e 	sth     r10,14(r9)
   1314c:	3d 20 ff e2 	lis     r9,-30
   13150:	61 29 40 a0 	ori     r9,r9,16544
   13154:	39 40 00 00 	li      r10,0
   13158:	b1 49 00 10 	sth     r10,16(r9)
   1315c:	3d 20 ff e2 	lis     r9,-30
   13160:	61 29 40 a0 	ori     r9,r9,16544
   13164:	39 40 00 00 	li      r10,0
   13168:	b1 49 00 12 	sth     r10,18(r9)
   1316c:	3d 20 ff e2 	lis     r9,-30
   13170:	61 29 40 a0 	ori     r9,r9,16544
   13174:	a1 49 00 20 	lhz     r10,32(r9)
   13178:	55 4a 00 32 	rlwinm  r10,r10,0,0,25
   1317c:	b1 49 00 20 	sth     r10,32(r9)
   13180:	3d 20 ff e2 	lis     r9,-30
   13184:	61 29 40 a0 	ori     r9,r9,16544
   13188:	a1 49 00 22 	lhz     r10,34(r9)
   1318c:	55 4a 00 36 	rlwinm  r10,r10,0,0,27
   13190:	b1 49 00 22 	sth     r10,34(r9)
   13194:	3d 20 ff e2 	lis     r9,-30
   13198:	61 29 40 a0 	ori     r9,r9,16544
   1319c:	a1 49 00 22 	lhz     r10,34(r9)
   131a0:	55 4a 07 2e 	rlwinm  r10,r10,0,28,23
   131a4:	b1 49 00 22 	sth     r10,34(r9)
   131a8:	3d 20 ff e2 	lis     r9,-30
   131ac:	61 29 40 a0 	ori     r9,r9,16544
   131b0:	a1 49 00 1c 	lhz     r10,28(r9)
   131b4:	55 4a 05 24 	rlwinm  r10,r10,0,20,18
   131b8:	b1 49 00 1c 	sth     r10,28(r9)
   131bc:	3d 20 ff e2 	lis     r9,-30
   131c0:	61 29 40 f0 	ori     r9,r9,16624
   131c4:	a1 49 00 04 	lhz     r10,4(r9)
   131c8:	61 4a 20 00 	ori     r10,r10,8192
   131cc:	b1 49 00 04 	sth     r10,4(r9)
   131d0:	3d 20 ff e2 	lis     r9,-30
   131d4:	61 29 40 f0 	ori     r9,r9,16624
   131d8:	a1 49 00 06 	lhz     r10,6(r9)
   131dc:	55 4a 05 3e 	clrlwi  r10,r10,20
   131e0:	b1 49 00 06 	sth     r10,6(r9)
   131e4:	3d 20 ff e2 	lis     r9,-30
   131e8:	61 29 40 f0 	ori     r9,r9,16624
   131ec:	a1 49 00 06 	lhz     r10,6(r9)
   131f0:	61 4a 00 04 	ori     r10,r10,4
   131f4:	b1 49 00 06 	sth     r10,6(r9)
   131f8:	3d 20 ff e2 	lis     r9,-30
   131fc:	61 29 40 f0 	ori     r9,r9,16624
   13200:	a1 49 00 06 	lhz     r10,6(r9)
   13204:	61 4a 08 00 	ori     r10,r10,2048
   13208:	b1 49 00 06 	sth     r10,6(r9)
   1320c:	3d 20 ff e2 	lis     r9,-30
   13210:	61 29 40 f0 	ori     r9,r9,16624
   13214:	a1 49 00 06 	lhz     r10,6(r9)
   13218:	61 4a 04 00 	ori     r10,r10,1024
   1321c:	b1 49 00 06 	sth     r10,6(r9)
   13220:	3d 20 ff e2 	lis     r9,-30
   13224:	61 29 40 f0 	ori     r9,r9,16624
   13228:	a1 49 00 06 	lhz     r10,6(r9)
   1322c:	55 4a 07 30 	rlwinm  r10,r10,0,28,24
   13230:	61 4a 00 20 	ori     r10,r10,32
   13234:	b1 49 00 06 	sth     r10,6(r9)
   13238:	3d 20 ff e2 	lis     r9,-30
   1323c:	61 29 40 f0 	ori     r9,r9,16624
   13240:	a1 49 00 04 	lhz     r10,4(r9)
   13244:	61 4a 00 80 	ori     r10,r10,128
   13248:	b1 49 00 04 	sth     r10,4(r9)
   1324c:	3d 20 ff e2 	lis     r9,-30
   13250:	61 29 40 f0 	ori     r9,r9,16624
   13254:	a1 49 00 04 	lhz     r10,4(r9)
   13258:	55 4a 07 72 	rlwinm  r10,r10,0,29,25
   1325c:	61 4a 00 08 	ori     r10,r10,8
   13260:	b1 49 00 04 	sth     r10,4(r9)
   13264:	3d 20 ff e2 	lis     r9,-30
   13268:	61 29 40 f0 	ori     r9,r9,16624
   1326c:	39 40 00 32 	li      r10,50
   13270:	b1 49 00 08 	sth     r10,8(r9)
   13274:	3d 20 ff e2 	lis     r9,-30
   13278:	61 29 40 f0 	ori     r9,r9,16624
   1327c:	39 40 00 64 	li      r10,100
   13280:	b1 49 00 0a 	sth     r10,10(r9)
   13284:	3d 20 ff e2 	lis     r9,-30
   13288:	61 29 40 f0 	ori     r9,r9,16624
   1328c:	39 40 00 00 	li      r10,0
   13290:	b1 49 00 0c 	sth     r10,12(r9)
   13294:	3d 20 ff e2 	lis     r9,-30
   13298:	61 29 40 f0 	ori     r9,r9,16624
   1329c:	39 40 00 00 	li      r10,0
   132a0:	b1 49 00 0e 	sth     r10,14(r9)
   132a4:	3d 20 ff e2 	lis     r9,-30
   132a8:	61 29 40 f0 	ori     r9,r9,16624
   132ac:	39 40 00 00 	li      r10,0
   132b0:	b1 49 00 10 	sth     r10,16(r9)
   132b4:	3d 20 ff e2 	lis     r9,-30
   132b8:	61 29 40 f0 	ori     r9,r9,16624
   132bc:	39 40 00 00 	li      r10,0
   132c0:	b1 49 00 12 	sth     r10,18(r9)
   132c4:	3d 20 ff e2 	lis     r9,-30
   132c8:	61 29 40 f0 	ori     r9,r9,16624
   132cc:	a1 49 00 20 	lhz     r10,32(r9)
   132d0:	55 4a 00 32 	rlwinm  r10,r10,0,0,25
   132d4:	b1 49 00 20 	sth     r10,32(r9)
   132d8:	3d 20 ff e2 	lis     r9,-30
   132dc:	61 29 40 f0 	ori     r9,r9,16624
   132e0:	a1 49 00 22 	lhz     r10,34(r9)
   132e4:	55 4a 00 36 	rlwinm  r10,r10,0,0,27
   132e8:	b1 49 00 22 	sth     r10,34(r9)
   132ec:	3d 20 ff e2 	lis     r9,-30
   132f0:	61 29 40 f0 	ori     r9,r9,16624
   132f4:	a1 49 00 22 	lhz     r10,34(r9)
   132f8:	55 4a 07 2e 	rlwinm  r10,r10,0,28,23
   132fc:	b1 49 00 22 	sth     r10,34(r9)
   13300:	3d 20 ff e2 	lis     r9,-30
   13304:	61 29 40 f0 	ori     r9,r9,16624
   13308:	a1 49 00 1c 	lhz     r10,28(r9)
   1330c:	55 4a 05 24 	rlwinm  r10,r10,0,20,18
   13310:	b1 49 00 1c 	sth     r10,28(r9)
   13314:	3d 20 ff e2 	lis     r9,-30
   13318:	61 29 40 00 	ori     r9,r9,16384
   1331c:	a1 49 01 40 	lhz     r10,320(r9)
   13320:	55 4a 06 26 	rlwinm  r10,r10,0,24,19
   13324:	61 4a 0d 00 	ori     r10,r10,3328
   13328:	b1 49 01 40 	sth     r10,320(r9)
   1332c:	3d 20 ff e2 	lis     r9,-30
   13330:	61 29 40 00 	ori     r9,r9,16384
   13334:	a1 49 01 40 	lhz     r10,320(r9)
   13338:	55 4a 07 2e 	rlwinm  r10,r10,0,28,23
   1333c:	61 4a 00 d0 	ori     r10,r10,208
   13340:	b1 49 01 40 	sth     r10,320(r9)
   13344:	3d 20 ff e2 	lis     r9,-30
   13348:	61 29 40 00 	ori     r9,r9,16384
   1334c:	a1 49 01 48 	lhz     r10,328(r9)
   13350:	55 4a 00 36 	rlwinm  r10,r10,0,0,27
   13354:	61 4a 00 0d 	ori     r10,r10,13
   13358:	b1 49 01 48 	sth     r10,328(r9)
   1335c:	3d 20 ff e2 	lis     r9,-30
   13360:	61 29 40 00 	ori     r9,r9,16384
   13364:	a1 49 01 48 	lhz     r10,328(r9)
   13368:	55 4a 06 26 	rlwinm  r10,r10,0,24,19
   1336c:	61 4a 0d 00 	ori     r10,r10,3328
   13370:	b1 49 01 48 	sth     r10,328(r9)
   13374:	39 7f 00 10 	addi    r11,r31,16
   13378:	83 eb ff fc 	lwz     r31,-4(r11)
   1337c:	7d 61 5b 78 	mr      r1,r11
   13380:	4e 80 00 20 	blr

00013384 <initTables>:
   13384:	94 21 ff f0 	stwu    r1,-16(r1)
   13388:	93 e1 00 0c 	stw     r31,12(r1)
   1338c:	7c 3f 0b 78 	mr      r31,r1
   13390:	3d 20 40 00 	lis     r9,16384
   13394:	39 29 00 40 	addi    r9,r9,64
   13398:	39 40 00 00 	li      r10,0
   1339c:	91 49 00 00 	stw     r10,0(r9)
   133a0:	3d 20 40 00 	lis     r9,16384
   133a4:	39 29 00 40 	addi    r9,r9,64
   133a8:	39 40 00 06 	li      r10,6
   133ac:	91 49 00 04 	stw     r10,4(r9)
   133b0:	3d 20 40 00 	lis     r9,16384
   133b4:	39 29 00 40 	addi    r9,r9,64
   133b8:	39 40 00 04 	li      r10,4
   133bc:	91 49 00 08 	stw     r10,8(r9)
   133c0:	3d 20 40 00 	lis     r9,16384
   133c4:	39 29 00 40 	addi    r9,r9,64
   133c8:	39 40 00 05 	li      r10,5
   133cc:	91 49 00 0c 	stw     r10,12(r9)
   133d0:	3d 20 40 00 	lis     r9,16384
   133d4:	39 29 00 40 	addi    r9,r9,64
   133d8:	39 40 00 02 	li      r10,2
   133dc:	91 49 00 10 	stw     r10,16(r9)
   133e0:	3d 20 40 00 	lis     r9,16384
   133e4:	39 29 00 40 	addi    r9,r9,64
   133e8:	39 40 00 01 	li      r10,1
   133ec:	91 49 00 14 	stw     r10,20(r9)
   133f0:	3d 20 40 00 	lis     r9,16384
   133f4:	39 29 00 40 	addi    r9,r9,64
   133f8:	39 40 00 03 	li      r10,3
   133fc:	91 49 00 18 	stw     r10,24(r9)
   13400:	3d 20 40 00 	lis     r9,16384
   13404:	39 29 00 40 	addi    r9,r9,64
   13408:	39 40 00 00 	li      r10,0
   1340c:	91 49 00 1c 	stw     r10,28(r9)
   13410:	3d 20 40 00 	lis     r9,16384
   13414:	39 29 02 a8 	addi    r9,r9,680
   13418:	39 40 00 01 	li      r10,1
   1341c:	91 49 00 28 	stw     r10,40(r9)
   13420:	3d 20 40 00 	lis     r9,16384
   13424:	39 29 02 a8 	addi    r9,r9,680
   13428:	39 40 00 01 	li      r10,1
   1342c:	91 49 00 4c 	stw     r10,76(r9)
   13430:	3d 20 40 00 	lis     r9,16384
   13434:	39 29 02 a8 	addi    r9,r9,680
   13438:	39 40 00 01 	li      r10,1
   1343c:	91 49 00 70 	stw     r10,112(r9)
   13440:	3d 20 40 00 	lis     r9,16384
   13444:	39 29 02 a8 	addi    r9,r9,680
   13448:	39 40 00 01 	li      r10,1
   1344c:	91 49 00 94 	stw     r10,148(r9)
   13450:	3d 20 40 00 	lis     r9,16384
   13454:	39 29 02 a8 	addi    r9,r9,680
   13458:	39 40 00 01 	li      r10,1
   1345c:	91 49 00 b8 	stw     r10,184(r9)
   13460:	3d 20 40 00 	lis     r9,16384
   13464:	39 29 02 a8 	addi    r9,r9,680
   13468:	39 40 00 01 	li      r10,1
   1346c:	91 49 00 c4 	stw     r10,196(r9)
   13470:	3d 20 40 00 	lis     r9,16384
   13474:	39 29 02 a8 	addi    r9,r9,680
   13478:	39 40 ff ff 	li      r10,-1
   1347c:	91 49 00 38 	stw     r10,56(r9)
   13480:	3d 20 40 00 	lis     r9,16384
   13484:	39 29 02 a8 	addi    r9,r9,680
   13488:	39 40 ff ff 	li      r10,-1
   1348c:	91 49 00 44 	stw     r10,68(r9)
   13490:	3d 20 40 00 	lis     r9,16384
   13494:	39 29 02 a8 	addi    r9,r9,680
   13498:	39 40 ff ff 	li      r10,-1
   1349c:	91 49 00 68 	stw     r10,104(r9)
   134a0:	3d 20 40 00 	lis     r9,16384
   134a4:	39 29 02 a8 	addi    r9,r9,680
   134a8:	39 40 ff ff 	li      r10,-1
   134ac:	91 49 00 8c 	stw     r10,140(r9)
   134b0:	3d 20 40 00 	lis     r9,16384
   134b4:	39 29 02 a8 	addi    r9,r9,680
   134b8:	39 40 ff ff 	li      r10,-1
   134bc:	91 49 00 b0 	stw     r10,176(r9)
   134c0:	3d 20 40 00 	lis     r9,16384
   134c4:	39 29 02 a8 	addi    r9,r9,680
   134c8:	39 40 ff ff 	li      r10,-1
   134cc:	91 49 00 d4 	stw     r10,212(r9)
   134d0:	3d 20 40 00 	lis     r9,16384
   134d4:	39 29 00 68 	addi    r9,r9,104
   134d8:	39 40 00 00 	li      r10,0
   134dc:	91 49 00 00 	stw     r10,0(r9)
   134e0:	3d 20 40 00 	lis     r9,16384
   134e4:	39 29 00 68 	addi    r9,r9,104
   134e8:	39 40 00 00 	li      r10,0
   134ec:	91 49 00 60 	stw     r10,96(r9)
   134f0:	3d 20 40 00 	lis     r9,16384
   134f4:	39 29 00 68 	addi    r9,r9,104
   134f8:	39 40 00 00 	li      r10,0
   134fc:	91 49 00 c0 	stw     r10,192(r9)
   13500:	3d 20 40 00 	lis     r9,16384
   13504:	39 29 00 68 	addi    r9,r9,104
   13508:	39 40 00 00 	li      r10,0
   1350c:	91 49 00 0c 	stw     r10,12(r9)
   13510:	3d 20 40 00 	lis     r9,16384
   13514:	39 29 00 68 	addi    r9,r9,104
   13518:	39 40 00 00 	li      r10,0
   1351c:	91 49 00 6c 	stw     r10,108(r9)
   13520:	3d 20 40 00 	lis     r9,16384
   13524:	39 29 00 68 	addi    r9,r9,104
   13528:	39 40 00 01 	li      r10,1
   1352c:	91 49 00 cc 	stw     r10,204(r9)
   13530:	3d 20 40 00 	lis     r9,16384
   13534:	39 29 00 68 	addi    r9,r9,104
   13538:	39 40 00 00 	li      r10,0
   1353c:	91 49 00 18 	stw     r10,24(r9)
   13540:	3d 20 40 00 	lis     r9,16384
   13544:	39 29 00 68 	addi    r9,r9,104
   13548:	39 40 00 01 	li      r10,1
   1354c:	91 49 00 78 	stw     r10,120(r9)
   13550:	3d 20 40 00 	lis     r9,16384
   13554:	39 29 00 68 	addi    r9,r9,104
   13558:	39 40 00 00 	li      r10,0
   1355c:	91 49 00 d8 	stw     r10,216(r9)
   13560:	3d 20 40 00 	lis     r9,16384
   13564:	39 29 00 68 	addi    r9,r9,104
   13568:	39 40 00 00 	li      r10,0
   1356c:	91 49 00 24 	stw     r10,36(r9)
   13570:	3d 20 40 00 	lis     r9,16384
   13574:	39 29 00 68 	addi    r9,r9,104
   13578:	39 40 00 00 	li      r10,0
   1357c:	91 49 00 84 	stw     r10,132(r9)
   13580:	3d 20 40 00 	lis     r9,16384
   13584:	39 29 00 68 	addi    r9,r9,104
   13588:	39 40 00 01 	li      r10,1
   1358c:	91 49 00 e4 	stw     r10,228(r9)
   13590:	3d 20 40 00 	lis     r9,16384
   13594:	39 29 00 68 	addi    r9,r9,104
   13598:	39 40 00 01 	li      r10,1
   1359c:	91 49 00 30 	stw     r10,48(r9)
   135a0:	3d 20 40 00 	lis     r9,16384
   135a4:	39 29 00 68 	addi    r9,r9,104
   135a8:	39 40 00 00 	li      r10,0
   135ac:	91 49 00 90 	stw     r10,144(r9)
   135b0:	3d 20 40 00 	lis     r9,16384
   135b4:	39 29 00 68 	addi    r9,r9,104
   135b8:	39 40 00 00 	li      r10,0
   135bc:	91 49 00 f0 	stw     r10,240(r9)
   135c0:	3d 20 40 00 	lis     r9,16384
   135c4:	39 29 00 68 	addi    r9,r9,104
   135c8:	39 40 00 01 	li      r10,1
   135cc:	91 49 00 3c 	stw     r10,60(r9)
   135d0:	3d 20 40 00 	lis     r9,16384
   135d4:	39 29 00 68 	addi    r9,r9,104
   135d8:	39 40 00 00 	li      r10,0
   135dc:	91 49 00 9c 	stw     r10,156(r9)
   135e0:	3d 20 40 00 	lis     r9,16384
   135e4:	39 29 00 68 	addi    r9,r9,104
   135e8:	39 40 00 00 	li      r10,0
   135ec:	91 49 00 fc 	stw     r10,252(r9)
   135f0:	3d 20 40 00 	lis     r9,16384
   135f4:	39 29 00 68 	addi    r9,r9,104
   135f8:	39 40 00 00 	li      r10,0
   135fc:	91 49 00 48 	stw     r10,72(r9)
   13600:	3d 20 40 00 	lis     r9,16384
   13604:	39 29 00 68 	addi    r9,r9,104
   13608:	39 40 00 01 	li      r10,1
   1360c:	91 49 00 a8 	stw     r10,168(r9)
   13610:	3d 20 40 00 	lis     r9,16384
   13614:	39 29 00 68 	addi    r9,r9,104
   13618:	39 40 00 00 	li      r10,0
   1361c:	91 49 01 08 	stw     r10,264(r9)
   13620:	3d 20 40 00 	lis     r9,16384
   13624:	39 29 00 68 	addi    r9,r9,104
   13628:	39 40 00 00 	li      r10,0
   1362c:	91 49 00 54 	stw     r10,84(r9)
   13630:	3d 20 40 00 	lis     r9,16384
   13634:	39 29 00 68 	addi    r9,r9,104
   13638:	39 40 00 00 	li      r10,0
   1363c:	91 49 00 b4 	stw     r10,180(r9)
   13640:	3d 20 40 00 	lis     r9,16384
   13644:	39 29 00 68 	addi    r9,r9,104
   13648:	39 40 00 00 	li      r10,0
   1364c:	91 49 01 14 	stw     r10,276(r9)
   13650:	3d 20 40 00 	lis     r9,16384
   13654:	39 29 00 68 	addi    r9,r9,104
   13658:	39 40 00 00 	li      r10,0
   1365c:	91 49 00 04 	stw     r10,4(r9)
   13660:	3d 20 40 00 	lis     r9,16384
   13664:	39 29 00 68 	addi    r9,r9,104
   13668:	39 40 00 00 	li      r10,0
   1366c:	91 49 00 64 	stw     r10,100(r9)
   13670:	3d 20 40 00 	lis     r9,16384
   13674:	39 29 00 68 	addi    r9,r9,104
   13678:	39 40 00 00 	li      r10,0
   1367c:	91 49 00 c4 	stw     r10,196(r9)
   13680:	3d 20 40 00 	lis     r9,16384
   13684:	39 29 00 68 	addi    r9,r9,104
   13688:	39 40 00 00 	li      r10,0
   1368c:	91 49 00 10 	stw     r10,16(r9)
   13690:	3d 20 40 00 	lis     r9,16384
   13694:	39 29 00 68 	addi    r9,r9,104
   13698:	39 40 ff ff 	li      r10,-1
   1369c:	91 49 00 70 	stw     r10,112(r9)
   136a0:	3d 20 40 00 	lis     r9,16384
   136a4:	39 29 00 68 	addi    r9,r9,104
   136a8:	39 40 00 00 	li      r10,0
   136ac:	91 49 00 d0 	stw     r10,208(r9)
   136b0:	3d 20 40 00 	lis     r9,16384
   136b4:	39 29 00 68 	addi    r9,r9,104
   136b8:	39 40 ff ff 	li      r10,-1
   136bc:	91 49 00 1c 	stw     r10,28(r9)
   136c0:	3d 20 40 00 	lis     r9,16384
   136c4:	39 29 00 68 	addi    r9,r9,104
   136c8:	39 40 00 00 	li      r10,0
   136cc:	91 49 00 7c 	stw     r10,124(r9)
   136d0:	3d 20 40 00 	lis     r9,16384
   136d4:	39 29 00 68 	addi    r9,r9,104
   136d8:	39 40 00 00 	li      r10,0
   136dc:	91 49 00 dc 	stw     r10,220(r9)
   136e0:	3d 20 40 00 	lis     r9,16384
   136e4:	39 29 00 68 	addi    r9,r9,104
   136e8:	39 40 ff ff 	li      r10,-1
   136ec:	91 49 00 28 	stw     r10,40(r9)
   136f0:	3d 20 40 00 	lis     r9,16384
   136f4:	39 29 00 68 	addi    r9,r9,104
   136f8:	39 40 00 00 	li      r10,0
   136fc:	91 49 00 88 	stw     r10,136(r9)
   13700:	3d 20 40 00 	lis     r9,16384
   13704:	39 29 00 68 	addi    r9,r9,104
   13708:	39 40 00 00 	li      r10,0
   1370c:	91 49 00 e8 	stw     r10,232(r9)
   13710:	3d 20 40 00 	lis     r9,16384
   13714:	39 29 00 68 	addi    r9,r9,104
   13718:	39 40 00 00 	li      r10,0
   1371c:	91 49 00 34 	stw     r10,52(r9)
   13720:	3d 20 40 00 	lis     r9,16384
   13724:	39 29 00 68 	addi    r9,r9,104
   13728:	39 40 00 00 	li      r10,0
   1372c:	91 49 00 94 	stw     r10,148(r9)
   13730:	3d 20 40 00 	lis     r9,16384
   13734:	39 29 00 68 	addi    r9,r9,104
   13738:	39 40 ff ff 	li      r10,-1
   1373c:	91 49 00 f4 	stw     r10,244(r9)
   13740:	3d 20 40 00 	lis     r9,16384
   13744:	39 29 00 68 	addi    r9,r9,104
   13748:	39 40 00 00 	li      r10,0
   1374c:	91 49 00 40 	stw     r10,64(r9)
   13750:	3d 20 40 00 	lis     r9,16384
   13754:	39 29 00 68 	addi    r9,r9,104
   13758:	39 40 ff ff 	li      r10,-1
   1375c:	91 49 00 a0 	stw     r10,160(r9)
   13760:	3d 20 40 00 	lis     r9,16384
   13764:	39 29 00 68 	addi    r9,r9,104
   13768:	39 40 00 00 	li      r10,0
   1376c:	91 49 01 00 	stw     r10,256(r9)
   13770:	3d 20 40 00 	lis     r9,16384
   13774:	39 29 00 68 	addi    r9,r9,104
   13778:	39 40 00 00 	li      r10,0
   1377c:	91 49 00 4c 	stw     r10,76(r9)
   13780:	3d 20 40 00 	lis     r9,16384
   13784:	39 29 00 68 	addi    r9,r9,104
   13788:	39 40 00 00 	li      r10,0
   1378c:	91 49 00 ac 	stw     r10,172(r9)
   13790:	3d 20 40 00 	lis     r9,16384
   13794:	39 29 00 68 	addi    r9,r9,104
   13798:	39 40 ff ff 	li      r10,-1
   1379c:	91 49 01 0c 	stw     r10,268(r9)
   137a0:	3d 20 40 00 	lis     r9,16384
   137a4:	39 29 00 68 	addi    r9,r9,104
   137a8:	39 40 00 00 	li      r10,0
   137ac:	91 49 00 58 	stw     r10,88(r9)
   137b0:	3d 20 40 00 	lis     r9,16384
   137b4:	39 29 00 68 	addi    r9,r9,104
   137b8:	39 40 00 00 	li      r10,0
   137bc:	91 49 00 b8 	stw     r10,184(r9)
   137c0:	3d 20 40 00 	lis     r9,16384
   137c4:	39 29 00 68 	addi    r9,r9,104
   137c8:	39 40 00 00 	li      r10,0
   137cc:	91 49 01 18 	stw     r10,280(r9)
   137d0:	3d 20 40 00 	lis     r9,16384
   137d4:	39 29 01 88 	addi    r9,r9,392
   137d8:	39 40 00 00 	li      r10,0
   137dc:	91 49 00 00 	stw     r10,0(r9)
   137e0:	3d 20 40 00 	lis     r9,16384
   137e4:	39 29 01 88 	addi    r9,r9,392
   137e8:	39 40 00 00 	li      r10,0
   137ec:	91 49 00 60 	stw     r10,96(r9)
   137f0:	3d 20 40 00 	lis     r9,16384
   137f4:	39 29 01 88 	addi    r9,r9,392
   137f8:	39 40 00 00 	li      r10,0
   137fc:	91 49 00 c0 	stw     r10,192(r9)
   13800:	3d 20 40 00 	lis     r9,16384
   13804:	39 29 01 88 	addi    r9,r9,392
   13808:	39 40 00 00 	li      r10,0
   1380c:	91 49 00 0c 	stw     r10,12(r9)
   13810:	3d 20 40 00 	lis     r9,16384
   13814:	39 29 01 88 	addi    r9,r9,392
   13818:	39 40 00 01 	li      r10,1
   1381c:	91 49 00 6c 	stw     r10,108(r9)
   13820:	3d 20 40 00 	lis     r9,16384
   13824:	39 29 01 88 	addi    r9,r9,392
   13828:	39 40 00 00 	li      r10,0
   1382c:	91 49 00 cc 	stw     r10,204(r9)
   13830:	3d 20 40 00 	lis     r9,16384
   13834:	39 29 01 88 	addi    r9,r9,392
   13838:	39 40 00 01 	li      r10,1
   1383c:	91 49 00 18 	stw     r10,24(r9)
   13840:	3d 20 40 00 	lis     r9,16384
   13844:	39 29 01 88 	addi    r9,r9,392
   13848:	39 40 00 00 	li      r10,0
   1384c:	91 49 00 78 	stw     r10,120(r9)
   13850:	3d 20 40 00 	lis     r9,16384
   13854:	39 29 01 88 	addi    r9,r9,392
   13858:	39 40 00 00 	li      r10,0
   1385c:	91 49 00 d8 	stw     r10,216(r9)
   13860:	3d 20 40 00 	lis     r9,16384
   13864:	39 29 01 88 	addi    r9,r9,392
   13868:	39 40 00 01 	li      r10,1
   1386c:	91 49 00 24 	stw     r10,36(r9)
   13870:	3d 20 40 00 	lis     r9,16384
   13874:	39 29 01 88 	addi    r9,r9,392
   13878:	39 40 00 00 	li      r10,0
   1387c:	91 49 00 84 	stw     r10,132(r9)
   13880:	3d 20 40 00 	lis     r9,16384
   13884:	39 29 01 88 	addi    r9,r9,392
   13888:	39 40 00 00 	li      r10,0
   1388c:	91 49 00 e4 	stw     r10,228(r9)
   13890:	3d 20 40 00 	lis     r9,16384
   13894:	39 29 01 88 	addi    r9,r9,392
   13898:	39 40 00 00 	li      r10,0
   1389c:	91 49 00 30 	stw     r10,48(r9)
   138a0:	3d 20 40 00 	lis     r9,16384
   138a4:	39 29 01 88 	addi    r9,r9,392
   138a8:	39 40 00 00 	li      r10,0
   138ac:	91 49 00 90 	stw     r10,144(r9)
   138b0:	3d 20 40 00 	lis     r9,16384
   138b4:	39 29 01 88 	addi    r9,r9,392
   138b8:	39 40 00 01 	li      r10,1
   138bc:	91 49 00 f0 	stw     r10,240(r9)
   138c0:	3d 20 40 00 	lis     r9,16384
   138c4:	39 29 01 88 	addi    r9,r9,392
   138c8:	39 40 00 00 	li      r10,0
   138cc:	91 49 00 3c 	stw     r10,60(r9)
   138d0:	3d 20 40 00 	lis     r9,16384
   138d4:	39 29 01 88 	addi    r9,r9,392
   138d8:	39 40 00 01 	li      r10,1
   138dc:	91 49 00 9c 	stw     r10,156(r9)
   138e0:	3d 20 40 00 	lis     r9,16384
   138e4:	39 29 01 88 	addi    r9,r9,392
   138e8:	39 40 00 00 	li      r10,0
   138ec:	91 49 00 fc 	stw     r10,252(r9)
   138f0:	3d 20 40 00 	lis     r9,16384
   138f4:	39 29 01 88 	addi    r9,r9,392
   138f8:	39 40 00 00 	li      r10,0
   138fc:	91 49 00 48 	stw     r10,72(r9)
   13900:	3d 20 40 00 	lis     r9,16384
   13904:	39 29 01 88 	addi    r9,r9,392
   13908:	39 40 00 00 	li      r10,0
   1390c:	91 49 00 a8 	stw     r10,168(r9)
   13910:	3d 20 40 00 	lis     r9,16384
   13914:	39 29 01 88 	addi    r9,r9,392
   13918:	39 40 00 01 	li      r10,1
   1391c:	91 49 01 08 	stw     r10,264(r9)
   13920:	3d 20 40 00 	lis     r9,16384
   13924:	39 29 01 88 	addi    r9,r9,392
   13928:	39 40 00 00 	li      r10,0
   1392c:	91 49 00 54 	stw     r10,84(r9)
   13930:	3d 20 40 00 	lis     r9,16384
   13934:	39 29 01 88 	addi    r9,r9,392
   13938:	39 40 00 00 	li      r10,0
   1393c:	91 49 00 b4 	stw     r10,180(r9)
   13940:	3d 20 40 00 	lis     r9,16384
   13944:	39 29 01 88 	addi    r9,r9,392
   13948:	39 40 00 00 	li      r10,0
   1394c:	91 49 01 14 	stw     r10,276(r9)
   13950:	3d 20 40 00 	lis     r9,16384
   13954:	39 29 01 88 	addi    r9,r9,392
   13958:	39 40 00 00 	li      r10,0
   1395c:	91 49 00 04 	stw     r10,4(r9)
   13960:	3d 20 40 00 	lis     r9,16384
   13964:	39 29 01 88 	addi    r9,r9,392
   13968:	39 40 00 00 	li      r10,0
   1396c:	91 49 00 64 	stw     r10,100(r9)
   13970:	3d 20 40 00 	lis     r9,16384
   13974:	39 29 01 88 	addi    r9,r9,392
   13978:	39 40 00 00 	li      r10,0
   1397c:	91 49 00 c4 	stw     r10,196(r9)
   13980:	3d 20 40 00 	lis     r9,16384
   13984:	39 29 01 88 	addi    r9,r9,392
   13988:	39 40 00 00 	li      r10,0
   1398c:	91 49 00 10 	stw     r10,16(r9)
   13990:	3d 20 40 00 	lis     r9,16384
   13994:	39 29 01 88 	addi    r9,r9,392
   13998:	39 40 00 00 	li      r10,0
   1399c:	91 49 00 70 	stw     r10,112(r9)
   139a0:	3d 20 40 00 	lis     r9,16384
   139a4:	39 29 01 88 	addi    r9,r9,392
   139a8:	39 40 00 01 	li      r10,1
   139ac:	91 49 00 d0 	stw     r10,208(r9)
   139b0:	3d 20 40 00 	lis     r9,16384
   139b4:	39 29 01 88 	addi    r9,r9,392
   139b8:	39 40 00 00 	li      r10,0
   139bc:	91 49 00 1c 	stw     r10,28(r9)
   139c0:	3d 20 40 00 	lis     r9,16384
   139c4:	39 29 01 88 	addi    r9,r9,392
   139c8:	39 40 00 01 	li      r10,1
   139cc:	91 49 00 7c 	stw     r10,124(r9)
   139d0:	3d 20 40 00 	lis     r9,16384
   139d4:	39 29 01 88 	addi    r9,r9,392
   139d8:	39 40 00 00 	li      r10,0
   139dc:	91 49 00 dc 	stw     r10,220(r9)
   139e0:	3d 20 40 00 	lis     r9,16384
   139e4:	39 29 01 88 	addi    r9,r9,392
   139e8:	39 40 00 00 	li      r10,0
   139ec:	91 49 00 28 	stw     r10,40(r9)
   139f0:	3d 20 40 00 	lis     r9,16384
   139f4:	39 29 01 88 	addi    r9,r9,392
   139f8:	39 40 00 00 	li      r10,0
   139fc:	91 49 00 88 	stw     r10,136(r9)
   13a00:	3d 20 40 00 	lis     r9,16384
   13a04:	39 29 01 88 	addi    r9,r9,392
   13a08:	39 40 00 01 	li      r10,1
   13a0c:	91 49 00 e8 	stw     r10,232(r9)
   13a10:	3d 20 40 00 	lis     r9,16384
   13a14:	39 29 01 88 	addi    r9,r9,392
   13a18:	39 40 00 01 	li      r10,1
   13a1c:	91 49 00 34 	stw     r10,52(r9)
   13a20:	3d 20 40 00 	lis     r9,16384
   13a24:	39 29 01 88 	addi    r9,r9,392
   13a28:	39 40 00 00 	li      r10,0
   13a2c:	91 49 00 94 	stw     r10,148(r9)
   13a30:	3d 20 40 00 	lis     r9,16384
   13a34:	39 29 01 88 	addi    r9,r9,392
   13a38:	39 40 00 00 	li      r10,0
   13a3c:	91 49 00 f4 	stw     r10,244(r9)
   13a40:	3d 20 40 00 	lis     r9,16384
   13a44:	39 29 01 88 	addi    r9,r9,392
   13a48:	39 40 00 01 	li      r10,1
   13a4c:	91 49 00 40 	stw     r10,64(r9)
   13a50:	3d 20 40 00 	lis     r9,16384
   13a54:	39 29 01 88 	addi    r9,r9,392
   13a58:	39 40 00 00 	li      r10,0
   13a5c:	91 49 00 a0 	stw     r10,160(r9)
   13a60:	3d 20 40 00 	lis     r9,16384
   13a64:	39 29 01 88 	addi    r9,r9,392
   13a68:	39 40 00 00 	li      r10,0
   13a6c:	91 49 01 00 	stw     r10,256(r9)
   13a70:	3d 20 40 00 	lis     r9,16384
   13a74:	39 29 01 88 	addi    r9,r9,392
   13a78:	39 40 00 00 	li      r10,0
   13a7c:	91 49 00 4c 	stw     r10,76(r9)
   13a80:	3d 20 40 00 	lis     r9,16384
   13a84:	39 29 01 88 	addi    r9,r9,392
   13a88:	39 40 00 01 	li      r10,1
   13a8c:	91 49 00 ac 	stw     r10,172(r9)
   13a90:	3d 20 40 00 	lis     r9,16384
   13a94:	39 29 01 88 	addi    r9,r9,392
   13a98:	39 40 00 00 	li      r10,0
   13a9c:	91 49 01 0c 	stw     r10,268(r9)
   13aa0:	3d 20 40 00 	lis     r9,16384
   13aa4:	39 29 01 88 	addi    r9,r9,392
   13aa8:	39 40 00 00 	li      r10,0
   13aac:	91 49 00 58 	stw     r10,88(r9)
   13ab0:	3d 20 40 00 	lis     r9,16384
   13ab4:	39 29 01 88 	addi    r9,r9,392
   13ab8:	39 40 00 00 	li      r10,0
   13abc:	91 49 00 b8 	stw     r10,184(r9)
   13ac0:	3d 20 40 00 	lis     r9,16384
   13ac4:	39 29 01 88 	addi    r9,r9,392
   13ac8:	39 40 00 00 	li      r10,0
   13acc:	91 49 01 18 	stw     r10,280(r9)
   13ad0:	39 7f 00 10 	addi    r11,r31,16
   13ad4:	83 eb ff fc 	lwz     r31,-4(r11)
   13ad8:	7d 61 5b 78 	mr      r1,r11
   13adc:	4e 80 00 20 	blr

00013ae0 <enableIRQ>:
   13ae0:	94 21 ff f0 	stwu    r1,-16(r1)
   13ae4:	93 e1 00 0c 	stw     r31,12(r1)
   13ae8:	7c 3f 0b 78 	mr      r31,r1
   13aec:	3d 20 ff f4 	lis     r9,-12
   13af0:	61 2a 80 00 	ori     r10,r9,32768
   13af4:	81 2a 00 08 	lwz     r9,8(r10)
   13af8:	39 00 00 00 	li      r8,0
   13afc:	51 09 07 3e 	rlwimi  r9,r8,0,28,31
   13b00:	91 2a 00 08 	stw     r9,8(r10)
   13b04:	7c 00 81 46 	.long 0x7c008146
   13b08:	39 7f 00 10 	addi    r11,r31,16
   13b0c:	83 eb ff fc 	lwz     r31,-4(r11)
   13b10:	7d 61 5b 78 	mr      r1,r11
   13b14:	4e 80 00 20 	blr

00013b18 <updatePWM>:
   13b18:	94 21 ff e0 	stwu    r1,-32(r1)
   13b1c:	7c 08 02 a6 	mflr    r0
   13b20:	90 01 00 24 	stw     r0,36(r1)
   13b24:	93 41 00 08 	stw     r26,8(r1)
   13b28:	93 61 00 0c 	stw     r27,12(r1)
   13b2c:	93 81 00 10 	stw     r28,16(r1)
   13b30:	93 a1 00 14 	stw     r29,20(r1)
   13b34:	93 c1 00 18 	stw     r30,24(r1)
   13b38:	93 e1 00 1c 	stw     r31,28(r1)
   13b3c:	7c 3f 0b 78 	mr      r31,r1
   13b40:	3d 20 40 00 	lis     r9,16384
   13b44:	81 29 03 bc 	lwz     r9,956(r9)
   13b48:	2f 89 00 c7 	cmpwi   cr7,r9,199
   13b4c:	41 9d 00 98 	bgt-    cr7,13be4 <updatePWM+0xcc>
   13b50:	3d 20 40 00 	lis     r9,16384
   13b54:	81 49 03 bc 	lwz     r10,956(r9)
   13b58:	39 20 ff 39 	li      r9,-199
   13b5c:	7f 8a 48 00 	cmpw    cr7,r10,r9
   13b60:	41 9c 00 84 	blt-    cr7,13be4 <updatePWM+0xcc>
   13b64:	3d 20 40 00 	lis     r9,16384
   13b68:	39 29 03 b0 	addi    r9,r9,944
   13b6c:	81 49 00 04 	lwz     r10,4(r9)
   13b70:	81 29 00 00 	lwz     r9,0(r9)
   13b74:	7d 23 4b 78 	mr      r3,r9
   13b78:	7d 44 53 78 	mr      r4,r10
   13b7c:	3c a0 40 72 	lis     r5,16498
   13b80:	60 a5 c0 00 	ori     r5,r5,49152
   13b84:	38 c0 00 00 	li      r6,0
   13b88:	4b ff e1 d5 	bl      11d5c <__ltdf2>
   13b8c:	7c 69 1b 78 	mr      r9,r3
   13b90:	2f 89 00 00 	cmpwi   cr7,r9,0
   13b94:	40 9c 00 50 	bge-    cr7,13be4 <updatePWM+0xcc>
   13b98:	3d 20 40 00 	lis     r9,16384
   13b9c:	39 29 03 b0 	addi    r9,r9,944
   13ba0:	81 49 00 04 	lwz     r10,4(r9)
   13ba4:	81 29 00 00 	lwz     r9,0(r9)
   13ba8:	7d 23 4b 78 	mr      r3,r9
   13bac:	7d 44 53 78 	mr      r4,r10
   13bb0:	3c a0 c0 72 	lis     r5,-16270
   13bb4:	60 a5 c0 00 	ori     r5,r5,49152
   13bb8:	38 c0 00 00 	li      r6,0
   13bbc:	4b ff e0 c1 	bl      11c7c <__gtdf2>
   13bc0:	7c 69 1b 78 	mr      r9,r3
   13bc4:	2f 89 00 00 	cmpwi   cr7,r9,0
   13bc8:	40 9d 00 1c 	ble-    cr7,13be4 <updatePWM+0xcc>
   13bcc:	3d 20 40 00 	lis     r9,16384
   13bd0:	39 09 00 60 	addi    r8,r9,96
   13bd4:	39 20 00 00 	li      r9,0
   13bd8:	39 40 00 00 	li      r10,0
   13bdc:	91 28 00 00 	stw     r9,0(r8)
   13be0:	91 48 00 04 	stw     r10,4(r8)
   13be4:	3d 20 ff e2 	lis     r9,-30
   13be8:	61 3c 40 00 	ori     r28,r9,16384
   13bec:	3d 20 40 00 	lis     r9,16384
   13bf0:	83 c9 00 34 	lwz     r30,52(r9)
   13bf4:	3d 20 40 00 	lis     r9,16384
   13bf8:	39 29 00 60 	addi    r9,r9,96
   13bfc:	81 49 00 04 	lwz     r10,4(r9)
   13c00:	81 29 00 00 	lwz     r9,0(r9)
   13c04:	3b a0 00 01 	li      r29,1
   13c08:	7d 23 4b 78 	mr      r3,r9
   13c0c:	7d 44 53 78 	mr      r4,r10
   13c10:	38 a0 00 00 	li      r5,0
   13c14:	38 c0 00 00 	li      r6,0
   13c18:	4b ff e1 45 	bl      11d5c <__ltdf2>
   13c1c:	7c 69 1b 78 	mr      r9,r3
   13c20:	2f 89 00 00 	cmpwi   cr7,r9,0
   13c24:	41 9c 00 08 	blt-    cr7,13c2c <updatePWM+0x114>
   13c28:	3b a0 00 00 	li      r29,0
   13c2c:	57 a9 06 3e 	clrlwi  r9,r29,24
   13c30:	7d 28 4b 78 	mr      r8,r9
   13c34:	3d 20 40 00 	lis     r9,16384
   13c38:	39 49 00 68 	addi    r10,r9,104
   13c3c:	7f c9 f3 78 	mr      r9,r30
   13c40:	55 29 08 3c 	rlwinm  r9,r9,1,0,30
   13c44:	7d 29 f2 14 	add     r9,r9,r30
   13c48:	7d 29 42 14 	add     r9,r9,r8
   13c4c:	55 29 10 3a 	rlwinm  r9,r9,2,0,29
   13c50:	7d 2a 4a 14 	add     r9,r10,r9
   13c54:	81 29 00 00 	lwz     r9,0(r9)
   13c58:	7d 23 4b 78 	mr      r3,r9
   13c5c:	4b ff e1 71 	bl      11dcc <__floatsidf>
   13c60:	7c 88 23 78 	mr      r8,r4
   13c64:	7c 67 1b 78 	mr      r7,r3
   13c68:	3d 20 40 00 	lis     r9,16384
   13c6c:	39 29 00 60 	addi    r9,r9,96
   13c70:	81 49 00 04 	lwz     r10,4(r9)
   13c74:	81 29 00 00 	lwz     r9,0(r9)
   13c78:	7c e3 3b 78 	mr      r3,r7
   13c7c:	7d 04 43 78 	mr      r4,r8
   13c80:	7d 25 4b 78 	mr      r5,r9
   13c84:	7d 46 53 78 	mr      r6,r10
   13c88:	4b ff da d1 	bl      11758 <__muldf3>
   13c8c:	7c 8a 23 78 	mr      r10,r4
   13c90:	7c 69 1b 78 	mr      r9,r3
   13c94:	7d 23 4b 78 	mr      r3,r9
   13c98:	7d 44 53 78 	mr      r4,r10
   13c9c:	3c a0 40 59 	lis     r5,16473
   13ca0:	38 c0 00 00 	li      r6,0
   13ca4:	4b ff da b5 	bl      11758 <__muldf3>
   13ca8:	7c 8a 23 78 	mr      r10,r4
   13cac:	7c 69 1b 78 	mr      r9,r3
   13cb0:	7d 23 4b 78 	mr      r3,r9
   13cb4:	7d 44 53 78 	mr      r4,r10
   13cb8:	4b ff d5 7d 	bl      11234 <__fixunsdfsi>
   13cbc:	7c 69 1b 78 	mr      r9,r3
   13cc0:	55 29 04 3e 	clrlwi  r9,r9,16
   13cc4:	b1 3c 00 0e 	sth     r9,14(r28)
   13cc8:	3d 20 ff e2 	lis     r9,-30
   13ccc:	61 3c 40 a0 	ori     r28,r9,16544
   13cd0:	3d 20 40 00 	lis     r9,16384
   13cd4:	83 c9 00 34 	lwz     r30,52(r9)
   13cd8:	3d 20 40 00 	lis     r9,16384
   13cdc:	39 29 00 60 	addi    r9,r9,96
   13ce0:	81 49 00 04 	lwz     r10,4(r9)
   13ce4:	81 29 00 00 	lwz     r9,0(r9)
   13ce8:	3b a0 00 01 	li      r29,1
   13cec:	7d 23 4b 78 	mr      r3,r9
   13cf0:	7d 44 53 78 	mr      r4,r10
   13cf4:	38 a0 00 00 	li      r5,0
   13cf8:	38 c0 00 00 	li      r6,0
   13cfc:	4b ff e0 61 	bl      11d5c <__ltdf2>
   13d00:	7c 69 1b 78 	mr      r9,r3
   13d04:	2f 89 00 00 	cmpwi   cr7,r9,0
   13d08:	41 9c 00 08 	blt-    cr7,13d10 <updatePWM+0x1f8>
   13d0c:	3b a0 00 00 	li      r29,0
   13d10:	57 a9 06 3e 	clrlwi  r9,r29,24
   13d14:	7d 28 4b 78 	mr      r8,r9
   13d18:	3d 20 40 00 	lis     r9,16384
   13d1c:	39 49 00 68 	addi    r10,r9,104
   13d20:	7f c9 f3 78 	mr      r9,r30
   13d24:	55 29 08 3c 	rlwinm  r9,r9,1,0,30
   13d28:	7d 29 f2 14 	add     r9,r9,r30
   13d2c:	7d 29 42 14 	add     r9,r9,r8
   13d30:	39 29 00 18 	addi    r9,r9,24
   13d34:	55 29 10 3a 	rlwinm  r9,r9,2,0,29
   13d38:	7d 2a 4a 14 	add     r9,r10,r9
   13d3c:	81 29 00 00 	lwz     r9,0(r9)
   13d40:	7d 23 4b 78 	mr      r3,r9
   13d44:	4b ff e0 89 	bl      11dcc <__floatsidf>
   13d48:	7c 88 23 78 	mr      r8,r4
   13d4c:	7c 67 1b 78 	mr      r7,r3
   13d50:	3d 20 40 00 	lis     r9,16384
   13d54:	39 29 00 60 	addi    r9,r9,96
   13d58:	81 49 00 04 	lwz     r10,4(r9)
   13d5c:	81 29 00 00 	lwz     r9,0(r9)
   13d60:	7c e3 3b 78 	mr      r3,r7
   13d64:	7d 04 43 78 	mr      r4,r8
   13d68:	7d 25 4b 78 	mr      r5,r9
   13d6c:	7d 46 53 78 	mr      r6,r10
   13d70:	4b ff d9 e9 	bl      11758 <__muldf3>
   13d74:	7c 8a 23 78 	mr      r10,r4
   13d78:	7c 69 1b 78 	mr      r9,r3
   13d7c:	7d 23 4b 78 	mr      r3,r9
   13d80:	7d 44 53 78 	mr      r4,r10
   13d84:	3c a0 40 59 	lis     r5,16473
   13d88:	38 c0 00 00 	li      r6,0
   13d8c:	4b ff d9 cd 	bl      11758 <__muldf3>
   13d90:	7c 8a 23 78 	mr      r10,r4
   13d94:	7c 69 1b 78 	mr      r9,r3
   13d98:	7d 23 4b 78 	mr      r3,r9
   13d9c:	7d 44 53 78 	mr      r4,r10
   13da0:	4b ff d4 95 	bl      11234 <__fixunsdfsi>
   13da4:	7c 69 1b 78 	mr      r9,r3
   13da8:	55 29 04 3e 	clrlwi  r9,r9,16
   13dac:	b1 3c 00 0e 	sth     r9,14(r28)
   13db0:	3d 20 ff e2 	lis     r9,-30
   13db4:	61 3c 40 f0 	ori     r28,r9,16624
   13db8:	3d 20 40 00 	lis     r9,16384
   13dbc:	83 c9 00 34 	lwz     r30,52(r9)
   13dc0:	3d 20 40 00 	lis     r9,16384
   13dc4:	39 29 00 60 	addi    r9,r9,96
   13dc8:	81 49 00 04 	lwz     r10,4(r9)
   13dcc:	81 29 00 00 	lwz     r9,0(r9)
   13dd0:	3b a0 00 01 	li      r29,1
   13dd4:	7d 23 4b 78 	mr      r3,r9
   13dd8:	7d 44 53 78 	mr      r4,r10
   13ddc:	38 a0 00 00 	li      r5,0
   13de0:	38 c0 00 00 	li      r6,0
   13de4:	4b ff df 79 	bl      11d5c <__ltdf2>
   13de8:	7c 69 1b 78 	mr      r9,r3
   13dec:	2f 89 00 00 	cmpwi   cr7,r9,0
   13df0:	41 9c 00 08 	blt-    cr7,13df8 <updatePWM+0x2e0>
   13df4:	3b a0 00 00 	li      r29,0
   13df8:	57 a9 06 3e 	clrlwi  r9,r29,24
   13dfc:	7d 28 4b 78 	mr      r8,r9
   13e00:	3d 20 40 00 	lis     r9,16384
   13e04:	39 49 00 68 	addi    r10,r9,104
   13e08:	7f c9 f3 78 	mr      r9,r30
   13e0c:	55 29 08 3c 	rlwinm  r9,r9,1,0,30
   13e10:	7d 29 f2 14 	add     r9,r9,r30
   13e14:	7d 29 42 14 	add     r9,r9,r8
   13e18:	39 29 00 30 	addi    r9,r9,48
   13e1c:	55 29 10 3a 	rlwinm  r9,r9,2,0,29
   13e20:	7d 2a 4a 14 	add     r9,r10,r9
   13e24:	81 29 00 00 	lwz     r9,0(r9)
   13e28:	7d 23 4b 78 	mr      r3,r9
   13e2c:	4b ff df a1 	bl      11dcc <__floatsidf>
   13e30:	7c 88 23 78 	mr      r8,r4
   13e34:	7c 67 1b 78 	mr      r7,r3
   13e38:	3d 20 40 00 	lis     r9,16384
   13e3c:	39 29 00 60 	addi    r9,r9,96
   13e40:	81 49 00 04 	lwz     r10,4(r9)
   13e44:	81 29 00 00 	lwz     r9,0(r9)
   13e48:	7c e3 3b 78 	mr      r3,r7
   13e4c:	7d 04 43 78 	mr      r4,r8
   13e50:	7d 25 4b 78 	mr      r5,r9
   13e54:	7d 46 53 78 	mr      r6,r10
   13e58:	4b ff d9 01 	bl      11758 <__muldf3>
   13e5c:	7c 8a 23 78 	mr      r10,r4
   13e60:	7c 69 1b 78 	mr      r9,r3
   13e64:	7d 23 4b 78 	mr      r3,r9
   13e68:	7d 44 53 78 	mr      r4,r10
   13e6c:	3c a0 40 59 	lis     r5,16473
   13e70:	38 c0 00 00 	li      r6,0
   13e74:	4b ff d8 e5 	bl      11758 <__muldf3>
   13e78:	7c 8a 23 78 	mr      r10,r4
   13e7c:	7c 69 1b 78 	mr      r9,r3
   13e80:	7d 23 4b 78 	mr      r3,r9
   13e84:	7d 44 53 78 	mr      r4,r10
   13e88:	4b ff d3 ad 	bl      11234 <__fixunsdfsi>
   13e8c:	7c 69 1b 78 	mr      r9,r3
   13e90:	55 29 04 3e 	clrlwi  r9,r9,16
   13e94:	b1 3c 00 0e 	sth     r9,14(r28)
   13e98:	3d 20 ff e2 	lis     r9,-30
   13e9c:	61 3a 40 00 	ori     r26,r9,16384
   13ea0:	3d 20 40 00 	lis     r9,16384
   13ea4:	83 c9 00 34 	lwz     r30,52(r9)
   13ea8:	3d 20 40 00 	lis     r9,16384
   13eac:	39 29 00 60 	addi    r9,r9,96
   13eb0:	81 49 00 04 	lwz     r10,4(r9)
   13eb4:	81 29 00 00 	lwz     r9,0(r9)
   13eb8:	3b a0 00 01 	li      r29,1
   13ebc:	7d 23 4b 78 	mr      r3,r9
   13ec0:	7d 44 53 78 	mr      r4,r10
   13ec4:	38 a0 00 00 	li      r5,0
   13ec8:	38 c0 00 00 	li      r6,0
   13ecc:	4b ff de 91 	bl      11d5c <__ltdf2>
   13ed0:	7c 69 1b 78 	mr      r9,r3
   13ed4:	2f 89 00 00 	cmpwi   cr7,r9,0
   13ed8:	41 9c 00 08 	blt-    cr7,13ee0 <updatePWM+0x3c8>
   13edc:	3b a0 00 00 	li      r29,0
   13ee0:	57 a9 06 3e 	clrlwi  r9,r29,24
   13ee4:	7d 28 4b 78 	mr      r8,r9
   13ee8:	3d 20 40 00 	lis     r9,16384
   13eec:	39 49 00 68 	addi    r10,r9,104
   13ef0:	7f c9 f3 78 	mr      r9,r30
   13ef4:	55 29 08 3c 	rlwinm  r9,r9,1,0,30
   13ef8:	7d 29 f2 14 	add     r9,r9,r30
   13efc:	7d 29 42 14 	add     r9,r9,r8
   13f00:	55 29 10 3a 	rlwinm  r9,r9,2,0,29
   13f04:	7d 2a 4a 14 	add     r9,r10,r9
   13f08:	81 29 00 00 	lwz     r9,0(r9)
   13f0c:	7d 23 4b 78 	mr      r3,r9
   13f10:	4b ff de bd 	bl      11dcc <__floatsidf>
   13f14:	7c 88 23 78 	mr      r8,r4
   13f18:	7c 67 1b 78 	mr      r7,r3
   13f1c:	3d 20 40 00 	lis     r9,16384
   13f20:	39 29 00 60 	addi    r9,r9,96
   13f24:	81 49 00 04 	lwz     r10,4(r9)
   13f28:	81 29 00 00 	lwz     r9,0(r9)
   13f2c:	7c e3 3b 78 	mr      r3,r7
   13f30:	7d 04 43 78 	mr      r4,r8
   13f34:	7d 25 4b 78 	mr      r5,r9
   13f38:	7d 46 53 78 	mr      r6,r10
   13f3c:	4b ff d8 1d 	bl      11758 <__muldf3>
   13f40:	7c 8a 23 78 	mr      r10,r4
   13f44:	7c 69 1b 78 	mr      r9,r3
   13f48:	7d 23 4b 78 	mr      r3,r9
   13f4c:	7d 44 53 78 	mr      r4,r10
   13f50:	3c a0 40 59 	lis     r5,16473
   13f54:	38 c0 00 00 	li      r6,0
   13f58:	4b ff d8 01 	bl      11758 <__muldf3>
   13f5c:	7c 8a 23 78 	mr      r10,r4
   13f60:	7c 69 1b 78 	mr      r9,r3
   13f64:	7d 5e 53 78 	mr      r30,r10
   13f68:	7d 3d 4b 78 	mr      r29,r9
   13f6c:	3d 20 40 00 	lis     r9,16384
   13f70:	83 89 00 34 	lwz     r28,52(r9)
   13f74:	3d 20 40 00 	lis     r9,16384
   13f78:	39 29 00 60 	addi    r9,r9,96
   13f7c:	81 49 00 04 	lwz     r10,4(r9)
   13f80:	81 29 00 00 	lwz     r9,0(r9)
   13f84:	3b 60 00 01 	li      r27,1
   13f88:	7d 23 4b 78 	mr      r3,r9
   13f8c:	7d 44 53 78 	mr      r4,r10
   13f90:	38 a0 00 00 	li      r5,0
   13f94:	38 c0 00 00 	li      r6,0
   13f98:	4b ff dd c5 	bl      11d5c <__ltdf2>
   13f9c:	7c 69 1b 78 	mr      r9,r3
   13fa0:	2f 89 00 00 	cmpwi   cr7,r9,0
   13fa4:	41 9c 00 08 	blt-    cr7,13fac <updatePWM+0x494>
   13fa8:	3b 60 00 00 	li      r27,0
   13fac:	57 69 06 3e 	clrlwi  r9,r27,24
   13fb0:	7d 28 4b 78 	mr      r8,r9
   13fb4:	3d 20 40 00 	lis     r9,16384
   13fb8:	39 49 01 88 	addi    r10,r9,392
   13fbc:	7f 89 e3 78 	mr      r9,r28
   13fc0:	55 29 08 3c 	rlwinm  r9,r9,1,0,30
   13fc4:	7d 29 e2 14 	add     r9,r9,r28
   13fc8:	7d 29 42 14 	add     r9,r9,r8
   13fcc:	55 29 10 3a 	rlwinm  r9,r9,2,0,29
   13fd0:	7d 2a 4a 14 	add     r9,r10,r9
   13fd4:	81 29 00 00 	lwz     r9,0(r9)
   13fd8:	1d 29 00 64 	mulli   r9,r9,100
   13fdc:	7d 23 4b 78 	mr      r3,r9
   13fe0:	4b ff dd ed 	bl      11dcc <__floatsidf>
   13fe4:	7c 8a 23 78 	mr      r10,r4
   13fe8:	7c 69 1b 78 	mr      r9,r3
   13fec:	7f a3 eb 78 	mr      r3,r29
   13ff0:	7f c4 f3 78 	mr      r4,r30
   13ff4:	7d 25 4b 78 	mr      r5,r9
   13ff8:	7d 46 53 78 	mr      r6,r10
   13ffc:	4b ff d6 9d 	bl      11698 <__adddf3>
   14000:	7c 8a 23 78 	mr      r10,r4
   14004:	7c 69 1b 78 	mr      r9,r3
   14008:	7d 23 4b 78 	mr      r3,r9
   1400c:	7d 44 53 78 	mr      r4,r10
   14010:	4b ff d2 25 	bl      11234 <__fixunsdfsi>
   14014:	7c 69 1b 78 	mr      r9,r3
   14018:	55 29 04 3e 	clrlwi  r9,r9,16
   1401c:	b1 3a 00 12 	sth     r9,18(r26)
   14020:	3d 20 ff e2 	lis     r9,-30
   14024:	61 3a 40 a0 	ori     r26,r9,16544
   14028:	3d 20 40 00 	lis     r9,16384
   1402c:	83 c9 00 34 	lwz     r30,52(r9)
   14030:	3d 20 40 00 	lis     r9,16384
   14034:	39 29 00 60 	addi    r9,r9,96
   14038:	81 49 00 04 	lwz     r10,4(r9)
   1403c:	81 29 00 00 	lwz     r9,0(r9)
   14040:	3b a0 00 01 	li      r29,1
   14044:	7d 23 4b 78 	mr      r3,r9
   14048:	7d 44 53 78 	mr      r4,r10
   1404c:	38 a0 00 00 	li      r5,0
   14050:	38 c0 00 00 	li      r6,0
   14054:	4b ff dd 09 	bl      11d5c <__ltdf2>
   14058:	7c 69 1b 78 	mr      r9,r3
   1405c:	2f 89 00 00 	cmpwi   cr7,r9,0
   14060:	41 9c 00 08 	blt-    cr7,14068 <updatePWM+0x550>
   14064:	3b a0 00 00 	li      r29,0
   14068:	57 a9 06 3e 	clrlwi  r9,r29,24
   1406c:	7d 28 4b 78 	mr      r8,r9
   14070:	3d 20 40 00 	lis     r9,16384
   14074:	39 49 00 68 	addi    r10,r9,104
   14078:	7f c9 f3 78 	mr      r9,r30
   1407c:	55 29 08 3c 	rlwinm  r9,r9,1,0,30
   14080:	7d 29 f2 14 	add     r9,r9,r30
   14084:	7d 29 42 14 	add     r9,r9,r8
   14088:	39 29 00 18 	addi    r9,r9,24
   1408c:	55 29 10 3a 	rlwinm  r9,r9,2,0,29
   14090:	7d 2a 4a 14 	add     r9,r10,r9
   14094:	81 29 00 00 	lwz     r9,0(r9)
   14098:	7d 23 4b 78 	mr      r3,r9
   1409c:	4b ff dd 31 	bl      11dcc <__floatsidf>
   140a0:	7c 88 23 78 	mr      r8,r4
   140a4:	7c 67 1b 78 	mr      r7,r3
   140a8:	3d 20 40 00 	lis     r9,16384
   140ac:	39 29 00 60 	addi    r9,r9,96
   140b0:	81 49 00 04 	lwz     r10,4(r9)
   140b4:	81 29 00 00 	lwz     r9,0(r9)
   140b8:	7c e3 3b 78 	mr      r3,r7
   140bc:	7d 04 43 78 	mr      r4,r8
   140c0:	7d 25 4b 78 	mr      r5,r9
   140c4:	7d 46 53 78 	mr      r6,r10
   140c8:	4b ff d6 91 	bl      11758 <__muldf3>
   140cc:	7c 8a 23 78 	mr      r10,r4
   140d0:	7c 69 1b 78 	mr      r9,r3
   140d4:	7d 23 4b 78 	mr      r3,r9
   140d8:	7d 44 53 78 	mr      r4,r10
   140dc:	3c a0 40 59 	lis     r5,16473
   140e0:	38 c0 00 00 	li      r6,0
   140e4:	4b ff d6 75 	bl      11758 <__muldf3>
   140e8:	7c 8a 23 78 	mr      r10,r4
   140ec:	7c 69 1b 78 	mr      r9,r3
   140f0:	7d 5e 53 78 	mr      r30,r10
   140f4:	7d 3d 4b 78 	mr      r29,r9
   140f8:	3d 20 40 00 	lis     r9,16384
   140fc:	83 89 00 34 	lwz     r28,52(r9)
   14100:	3d 20 40 00 	lis     r9,16384
   14104:	39 29 00 60 	addi    r9,r9,96
   14108:	81 49 00 04 	lwz     r10,4(r9)
   1410c:	81 29 00 00 	lwz     r9,0(r9)
   14110:	3b 60 00 01 	li      r27,1
   14114:	7d 23 4b 78 	mr      r3,r9
   14118:	7d 44 53 78 	mr      r4,r10
   1411c:	38 a0 00 00 	li      r5,0
   14120:	38 c0 00 00 	li      r6,0
   14124:	4b ff dc 39 	bl      11d5c <__ltdf2>
   14128:	7c 69 1b 78 	mr      r9,r3
   1412c:	2f 89 00 00 	cmpwi   cr7,r9,0
   14130:	41 9c 00 08 	blt-    cr7,14138 <updatePWM+0x620>
   14134:	3b 60 00 00 	li      r27,0
   14138:	57 69 06 3e 	clrlwi  r9,r27,24
   1413c:	7d 28 4b 78 	mr      r8,r9
   14140:	3d 20 40 00 	lis     r9,16384
   14144:	39 49 01 88 	addi    r10,r9,392
   14148:	7f 89 e3 78 	mr      r9,r28
   1414c:	55 29 08 3c 	rlwinm  r9,r9,1,0,30
   14150:	7d 29 e2 14 	add     r9,r9,r28
   14154:	7d 29 42 14 	add     r9,r9,r8
   14158:	39 29 00 18 	addi    r9,r9,24
   1415c:	55 29 10 3a 	rlwinm  r9,r9,2,0,29
   14160:	7d 2a 4a 14 	add     r9,r10,r9
   14164:	81 29 00 00 	lwz     r9,0(r9)
   14168:	1d 29 00 64 	mulli   r9,r9,100
   1416c:	7d 23 4b 78 	mr      r3,r9
   14170:	4b ff dc 5d 	bl      11dcc <__floatsidf>
   14174:	7c 8a 23 78 	mr      r10,r4
   14178:	7c 69 1b 78 	mr      r9,r3
   1417c:	7f a3 eb 78 	mr      r3,r29
   14180:	7f c4 f3 78 	mr      r4,r30
   14184:	7d 25 4b 78 	mr      r5,r9
   14188:	7d 46 53 78 	mr      r6,r10
   1418c:	4b ff d5 0d 	bl      11698 <__adddf3>
   14190:	7c 8a 23 78 	mr      r10,r4
   14194:	7c 69 1b 78 	mr      r9,r3
   14198:	7d 23 4b 78 	mr      r3,r9
   1419c:	7d 44 53 78 	mr      r4,r10
   141a0:	4b ff d0 95 	bl      11234 <__fixunsdfsi>
   141a4:	7c 69 1b 78 	mr      r9,r3
   141a8:	55 29 04 3e 	clrlwi  r9,r9,16
   141ac:	b1 3a 00 12 	sth     r9,18(r26)
   141b0:	3d 20 ff e2 	lis     r9,-30
   141b4:	61 3a 40 f0 	ori     r26,r9,16624
   141b8:	3d 20 40 00 	lis     r9,16384
   141bc:	83 c9 00 34 	lwz     r30,52(r9)
   141c0:	3d 20 40 00 	lis     r9,16384
   141c4:	39 29 00 60 	addi    r9,r9,96
   141c8:	81 49 00 04 	lwz     r10,4(r9)
   141cc:	81 29 00 00 	lwz     r9,0(r9)
   141d0:	3b a0 00 01 	li      r29,1
   141d4:	7d 23 4b 78 	mr      r3,r9
   141d8:	7d 44 53 78 	mr      r4,r10
   141dc:	38 a0 00 00 	li      r5,0
   141e0:	38 c0 00 00 	li      r6,0
   141e4:	4b ff db 79 	bl      11d5c <__ltdf2>
   141e8:	7c 69 1b 78 	mr      r9,r3
   141ec:	2f 89 00 00 	cmpwi   cr7,r9,0
   141f0:	41 9c 00 08 	blt-    cr7,141f8 <updatePWM+0x6e0>
   141f4:	3b a0 00 00 	li      r29,0
   141f8:	57 a9 06 3e 	clrlwi  r9,r29,24
   141fc:	7d 28 4b 78 	mr      r8,r9
   14200:	3d 20 40 00 	lis     r9,16384
   14204:	39 49 00 68 	addi    r10,r9,104
   14208:	7f c9 f3 78 	mr      r9,r30
   1420c:	55 29 08 3c 	rlwinm  r9,r9,1,0,30
   14210:	7d 29 f2 14 	add     r9,r9,r30
   14214:	7d 29 42 14 	add     r9,r9,r8
   14218:	39 29 00 30 	addi    r9,r9,48
   1421c:	55 29 10 3a 	rlwinm  r9,r9,2,0,29
   14220:	7d 2a 4a 14 	add     r9,r10,r9
   14224:	81 29 00 00 	lwz     r9,0(r9)
   14228:	7d 23 4b 78 	mr      r3,r9
   1422c:	4b ff db a1 	bl      11dcc <__floatsidf>
   14230:	7c 88 23 78 	mr      r8,r4
   14234:	7c 67 1b 78 	mr      r7,r3
   14238:	3d 20 40 00 	lis     r9,16384
   1423c:	39 29 00 60 	addi    r9,r9,96
   14240:	81 49 00 04 	lwz     r10,4(r9)
   14244:	81 29 00 00 	lwz     r9,0(r9)
   14248:	7c e3 3b 78 	mr      r3,r7
   1424c:	7d 04 43 78 	mr      r4,r8
   14250:	7d 25 4b 78 	mr      r5,r9
   14254:	7d 46 53 78 	mr      r6,r10
   14258:	4b ff d5 01 	bl      11758 <__muldf3>
   1425c:	7c 8a 23 78 	mr      r10,r4
   14260:	7c 69 1b 78 	mr      r9,r3
   14264:	7d 23 4b 78 	mr      r3,r9
   14268:	7d 44 53 78 	mr      r4,r10
   1426c:	3c a0 40 59 	lis     r5,16473
   14270:	38 c0 00 00 	li      r6,0
   14274:	4b ff d4 e5 	bl      11758 <__muldf3>
   14278:	7c 8a 23 78 	mr      r10,r4
   1427c:	7c 69 1b 78 	mr      r9,r3
   14280:	7d 5e 53 78 	mr      r30,r10
   14284:	7d 3d 4b 78 	mr      r29,r9
   14288:	3d 20 40 00 	lis     r9,16384
   1428c:	83 89 00 34 	lwz     r28,52(r9)
   14290:	3d 20 40 00 	lis     r9,16384
   14294:	39 29 00 60 	addi    r9,r9,96
   14298:	81 49 00 04 	lwz     r10,4(r9)
   1429c:	81 29 00 00 	lwz     r9,0(r9)
   142a0:	3b 60 00 01 	li      r27,1
   142a4:	7d 23 4b 78 	mr      r3,r9
   142a8:	7d 44 53 78 	mr      r4,r10
   142ac:	38 a0 00 00 	li      r5,0
   142b0:	38 c0 00 00 	li      r6,0
   142b4:	4b ff da a9 	bl      11d5c <__ltdf2>
   142b8:	7c 69 1b 78 	mr      r9,r3
   142bc:	2f 89 00 00 	cmpwi   cr7,r9,0
   142c0:	41 9c 00 08 	blt-    cr7,142c8 <updatePWM+0x7b0>
   142c4:	3b 60 00 00 	li      r27,0
   142c8:	57 69 06 3e 	clrlwi  r9,r27,24
   142cc:	7d 28 4b 78 	mr      r8,r9
   142d0:	3d 20 40 00 	lis     r9,16384
   142d4:	39 49 01 88 	addi    r10,r9,392
   142d8:	7f 89 e3 78 	mr      r9,r28
   142dc:	55 29 08 3c 	rlwinm  r9,r9,1,0,30
   142e0:	7d 29 e2 14 	add     r9,r9,r28
   142e4:	7d 29 42 14 	add     r9,r9,r8
   142e8:	39 29 00 30 	addi    r9,r9,48
   142ec:	55 29 10 3a 	rlwinm  r9,r9,2,0,29
   142f0:	7d 2a 4a 14 	add     r9,r10,r9
   142f4:	81 29 00 00 	lwz     r9,0(r9)
   142f8:	1d 29 00 64 	mulli   r9,r9,100
   142fc:	7d 23 4b 78 	mr      r3,r9
   14300:	4b ff da cd 	bl      11dcc <__floatsidf>
   14304:	7c 8a 23 78 	mr      r10,r4
   14308:	7c 69 1b 78 	mr      r9,r3
   1430c:	7f a3 eb 78 	mr      r3,r29
   14310:	7f c4 f3 78 	mr      r4,r30
   14314:	7d 25 4b 78 	mr      r5,r9
   14318:	7d 46 53 78 	mr      r6,r10
   1431c:	4b ff d3 7d 	bl      11698 <__adddf3>
   14320:	7c 8a 23 78 	mr      r10,r4
   14324:	7c 69 1b 78 	mr      r9,r3
   14328:	7d 23 4b 78 	mr      r3,r9
   1432c:	7d 44 53 78 	mr      r4,r10
   14330:	4b ff cf 05 	bl      11234 <__fixunsdfsi>
   14334:	7c 69 1b 78 	mr      r9,r3
   14338:	55 29 04 3e 	clrlwi  r9,r9,16
   1433c:	b1 3a 00 12 	sth     r9,18(r26)
   14340:	3d 20 ff e2 	lis     r9,-30
   14344:	61 29 40 00 	ori     r9,r9,16384
   14348:	a1 49 01 48 	lhz     r10,328(r9)
   1434c:	55 4a 00 36 	rlwinm  r10,r10,0,0,27
   14350:	61 4a 00 0d 	ori     r10,r10,13
   14354:	b1 49 01 48 	sth     r10,328(r9)
   14358:	3d 20 ff e2 	lis     r9,-30
   1435c:	61 29 40 00 	ori     r9,r9,16384
   14360:	a1 49 00 04 	lhz     r10,4(r9)
   14364:	61 4a 00 40 	ori     r10,r10,64
   14368:	b1 49 00 04 	sth     r10,4(r9)
   1436c:	39 7f 00 20 	addi    r11,r31,32
   14370:	80 0b 00 04 	lwz     r0,4(r11)
   14374:	7c 08 03 a6 	mtlr    r0
   14378:	83 4b ff e8 	lwz     r26,-24(r11)
   1437c:	83 6b ff ec 	lwz     r27,-20(r11)
   14380:	83 8b ff f0 	lwz     r28,-16(r11)
   14384:	83 ab ff f4 	lwz     r29,-12(r11)
   14388:	83 cb ff f8 	lwz     r30,-8(r11)
   1438c:	83 eb ff fc 	lwz     r31,-4(r11)
   14390:	7d 61 5b 78 	mr      r1,r11
   14394:	4e 80 00 20 	blr

00014398 <update_sector>:
   14398:	94 21 ff e0 	stwu    r1,-32(r1)
   1439c:	93 e1 00 1c 	stw     r31,28(r1)
   143a0:	7c 3f 0b 78 	mr      r31,r1
   143a4:	90 7f 00 08 	stw     r3,8(r31)
   143a8:	90 9f 00 0c 	stw     r4,12(r31)
   143ac:	90 bf 00 10 	stw     r5,16(r31)
   143b0:	81 3f 00 08 	lwz     r9,8(r31)
   143b4:	55 2a 08 3c 	rlwinm  r10,r9,1,0,30
   143b8:	81 3f 00 0c 	lwz     r9,12(r31)
   143bc:	7d 2a 4a 14 	add     r9,r10,r9
   143c0:	55 2a 08 3c 	rlwinm  r10,r9,1,0,30
   143c4:	81 3f 00 10 	lwz     r9,16(r31)
   143c8:	7d 2a 4a 14 	add     r9,r10,r9
   143cc:	7d 2a 4b 78 	mr      r10,r9
   143d0:	3d 20 40 00 	lis     r9,16384
   143d4:	91 49 00 34 	stw     r10,52(r9)
   143d8:	3d 20 40 00 	lis     r9,16384
   143dc:	81 49 00 38 	lwz     r10,56(r9)
   143e0:	3d 20 40 00 	lis     r9,16384
   143e4:	91 49 00 3c 	stw     r10,60(r9)
   143e8:	3d 20 40 00 	lis     r9,16384
   143ec:	81 29 00 34 	lwz     r9,52(r9)
   143f0:	3d 40 40 00 	lis     r10,16384
   143f4:	39 4a 00 40 	addi    r10,r10,64
   143f8:	55 29 10 3a 	rlwinm  r9,r9,2,0,29
   143fc:	7d 2a 4a 14 	add     r9,r10,r9
   14400:	81 49 00 00 	lwz     r10,0(r9)
   14404:	3d 20 40 00 	lis     r9,16384
   14408:	91 49 00 38 	stw     r10,56(r9)
   1440c:	39 7f 00 20 	addi    r11,r31,32
   14410:	83 eb ff fc 	lwz     r31,-4(r11)
   14414:	7d 61 5b 78 	mr      r1,r11
   14418:	4e 80 00 20 	blr

0001441c <pi_control>:
   1441c:	94 21 ff e0 	stwu    r1,-32(r1)
   14420:	7c 08 02 a6 	mflr    r0
   14424:	90 01 00 24 	stw     r0,36(r1)
   14428:	93 a1 00 14 	stw     r29,20(r1)
   1442c:	93 c1 00 18 	stw     r30,24(r1)
   14430:	93 e1 00 1c 	stw     r31,28(r1)
   14434:	7c 3f 0b 78 	mr      r31,r1
   14438:	90 7f 00 08 	stw     r3,8(r31)
   1443c:	3d 20 40 00 	lis     r9,16384
   14440:	39 29 00 28 	addi    r9,r9,40
   14444:	81 09 00 00 	lwz     r8,0(r9)
   14448:	3d 20 40 00 	lis     r9,16384
   1444c:	39 29 00 28 	addi    r9,r9,40
   14450:	81 49 00 04 	lwz     r10,4(r9)
   14454:	3d 20 40 00 	lis     r9,16384
   14458:	39 29 00 28 	addi    r9,r9,40
   1445c:	81 29 00 08 	lwz     r9,8(r9)
   14460:	7d 03 43 78 	mr      r3,r8
   14464:	7d 44 53 78 	mr      r4,r10
   14468:	7d 25 4b 78 	mr      r5,r9
   1446c:	4b ff ff 2d 	bl      14398 <update_sector>
   14470:	3d 20 40 00 	lis     r9,16384
   14474:	81 09 00 38 	lwz     r8,56(r9)
   14478:	3d 20 40 00 	lis     r9,16384
   1447c:	81 29 00 3c 	lwz     r9,60(r9)
   14480:	3d 40 40 00 	lis     r10,16384
   14484:	39 4a 02 a8 	addi    r10,r10,680
   14488:	55 08 18 38 	rlwinm  r8,r8,3,0,28
   1448c:	7d 28 4a 14 	add     r9,r8,r9
   14490:	55 29 10 3a 	rlwinm  r9,r9,2,0,29
   14494:	7d 2a 4a 14 	add     r9,r10,r9
   14498:	81 49 00 00 	lwz     r10,0(r9)
   1449c:	3d 20 40 00 	lis     r9,16384
   144a0:	91 49 03 a8 	stw     r10,936(r9)
   144a4:	3d 20 40 00 	lis     r9,16384
   144a8:	39 49 00 1c 	addi    r10,r9,28
   144ac:	81 3f 00 08 	lwz     r9,8(r31)
   144b0:	55 29 10 3a 	rlwinm  r9,r9,2,0,29
   144b4:	7d 2a 4a 14 	add     r9,r10,r9
   144b8:	81 29 00 00 	lwz     r9,0(r9)
   144bc:	7d 23 4b 78 	mr      r3,r9
   144c0:	4b ff db 05 	bl      11fc4 <__floatunsidf>
   144c4:	7c 8a 23 78 	mr      r10,r4
   144c8:	7c 69 1b 78 	mr      r9,r3
   144cc:	7d 23 4b 78 	mr      r3,r9
   144d0:	7d 44 53 78 	mr      r4,r10
   144d4:	3c a0 3f 00 	lis     r5,16128
   144d8:	60 a5 c6 f7 	ori     r5,r5,50935
   144dc:	3c c0 a0 b5 	lis     r6,-24395
   144e0:	60 c6 ed 8d 	ori     r6,r6,60813
   144e4:	4b ff d2 75 	bl      11758 <__muldf3>
   144e8:	7c 8a 23 78 	mr      r10,r4
   144ec:	7c 69 1b 78 	mr      r9,r3
   144f0:	3c 60 40 4e 	lis     r3,16462
   144f4:	38 80 00 00 	li      r4,0
   144f8:	7d 25 4b 78 	mr      r5,r9
   144fc:	7d 46 53 78 	mr      r6,r10
   14500:	4b ff d5 6d 	bl      11a6c <__divdf3>
   14504:	7c 8a 23 78 	mr      r10,r4
   14508:	7c 69 1b 78 	mr      r9,r3
   1450c:	7d 5e 53 78 	mr      r30,r10
   14510:	7d 3d 4b 78 	mr      r29,r9
   14514:	3d 20 40 00 	lis     r9,16384
   14518:	81 29 03 a8 	lwz     r9,936(r9)
   1451c:	7d 23 4b 78 	mr      r3,r9
   14520:	4b ff d8 ad 	bl      11dcc <__floatsidf>
   14524:	7c 8a 23 78 	mr      r10,r4
   14528:	7c 69 1b 78 	mr      r9,r3
   1452c:	7f a3 eb 78 	mr      r3,r29
   14530:	7f c4 f3 78 	mr      r4,r30
   14534:	7d 25 4b 78 	mr      r5,r9
   14538:	7d 46 53 78 	mr      r6,r10
   1453c:	4b ff d2 1d 	bl      11758 <__muldf3>
   14540:	7c 8a 23 78 	mr      r10,r4
   14544:	7c 69 1b 78 	mr      r9,r3
   14548:	3d 00 40 00 	lis     r8,16384
   1454c:	39 08 03 b0 	addi    r8,r8,944
   14550:	91 28 00 00 	stw     r9,0(r8)
   14554:	91 48 00 04 	stw     r10,4(r8)
   14558:	3d 20 40 00 	lis     r9,16384
   1455c:	39 29 03 b0 	addi    r9,r9,944
   14560:	81 49 00 04 	lwz     r10,4(r9)
   14564:	81 29 00 00 	lwz     r9,0(r9)
   14568:	7d 23 4b 78 	mr      r3,r9
   1456c:	7d 44 53 78 	mr      r4,r10
   14570:	4b ff d9 f5 	bl      11f64 <__truncdfsf2>
   14574:	7c 6a 1b 78 	mr      r10,r3
   14578:	3d 20 40 00 	lis     r9,16384
   1457c:	91 49 03 b8 	stw     r10,952(r9)
   14580:	3f c0 c3 f9 	lis     r30,-15367
   14584:	3d 20 40 00 	lis     r9,16384
   14588:	81 29 03 bc 	lwz     r9,956(r9)
   1458c:	7d 23 4b 78 	mr      r3,r9
   14590:	4b ff d8 3d 	bl      11dcc <__floatsidf>
   14594:	7c 88 23 78 	mr      r8,r4
   14598:	7c 67 1b 78 	mr      r7,r3
   1459c:	3d 20 40 00 	lis     r9,16384
   145a0:	39 29 03 b0 	addi    r9,r9,944
   145a4:	81 49 00 04 	lwz     r10,4(r9)
   145a8:	81 29 00 00 	lwz     r9,0(r9)
   145ac:	3b a0 00 01 	li      r29,1
   145b0:	7c e3 3b 78 	mr      r3,r7
   145b4:	7d 04 43 78 	mr      r4,r8
   145b8:	7d 25 4b 78 	mr      r5,r9
   145bc:	7d 46 53 78 	mr      r6,r10
   145c0:	4b ff d7 9d 	bl      11d5c <__ltdf2>
   145c4:	7c 69 1b 78 	mr      r9,r3
   145c8:	2f 89 00 00 	cmpwi   cr7,r9,0
   145cc:	41 9c 00 08 	blt-    cr7,145d4 <pi_control+0x1b8>
   145d0:	3b a0 00 00 	li      r29,0
   145d4:	57 aa 06 3e 	clrlwi  r10,r29,24
   145d8:	81 3e 06 00 	lwz     r9,1536(r30)
   145dc:	51 49 83 de 	rlwimi  r9,r10,16,15,15
   145e0:	91 3e 06 00 	stw     r9,1536(r30)
   145e4:	3f c0 c3 f9 	lis     r30,-15367
   145e8:	3d 20 40 00 	lis     r9,16384
   145ec:	81 29 03 bc 	lwz     r9,956(r9)
   145f0:	7d 23 4b 78 	mr      r3,r9
   145f4:	4b ff d7 d9 	bl      11dcc <__floatsidf>
   145f8:	7c 88 23 78 	mr      r8,r4
   145fc:	7c 67 1b 78 	mr      r7,r3
   14600:	3d 20 40 00 	lis     r9,16384
   14604:	39 29 03 b0 	addi    r9,r9,944
   14608:	81 49 00 04 	lwz     r10,4(r9)
   1460c:	81 29 00 00 	lwz     r9,0(r9)
   14610:	3b a0 00 01 	li      r29,1
   14614:	7c e3 3b 78 	mr      r3,r7
   14618:	7d 04 43 78 	mr      r4,r8
   1461c:	7d 25 4b 78 	mr      r5,r9
   14620:	7d 46 53 78 	mr      r6,r10
   14624:	4b ff d6 59 	bl      11c7c <__gtdf2>
   14628:	7c 69 1b 78 	mr      r9,r3
   1462c:	2f 89 00 00 	cmpwi   cr7,r9,0
   14630:	41 9d 00 08 	bgt-    cr7,14638 <pi_control+0x21c>
   14634:	3b a0 00 00 	li      r29,0
   14638:	57 aa 06 3e 	clrlwi  r10,r29,24
   1463c:	81 3e 06 00 	lwz     r9,1536(r30)
   14640:	51 49 c1 ce 	rlwimi  r9,r10,24,7,7
   14644:	91 3e 06 00 	stw     r9,1536(r30)
   14648:	3d 20 40 00 	lis     r9,16384
   1464c:	81 29 03 bc 	lwz     r9,956(r9)
   14650:	7d 23 4b 78 	mr      r3,r9
   14654:	4b ff d7 79 	bl      11dcc <__floatsidf>
   14658:	7c 88 23 78 	mr      r8,r4
   1465c:	7c 67 1b 78 	mr      r7,r3
   14660:	3d 20 40 00 	lis     r9,16384
   14664:	39 29 03 b0 	addi    r9,r9,944
   14668:	81 49 00 04 	lwz     r10,4(r9)
   1466c:	81 29 00 00 	lwz     r9,0(r9)
   14670:	7c e3 3b 78 	mr      r3,r7
   14674:	7d 04 43 78 	mr      r4,r8
   14678:	7d 25 4b 78 	mr      r5,r9
   1467c:	7d 46 53 78 	mr      r6,r10
   14680:	4b ff d0 71 	bl      116f0 <__subdf3>
   14684:	7c 8a 23 78 	mr      r10,r4
   14688:	7c 69 1b 78 	mr      r9,r3
   1468c:	7d 27 4b 78 	mr      r7,r9
   14690:	7d 48 53 78 	mr      r8,r10
   14694:	3d 20 40 00 	lis     r9,16384
   14698:	39 29 03 d0 	addi    r9,r9,976
   1469c:	81 49 00 04 	lwz     r10,4(r9)
   146a0:	81 29 00 00 	lwz     r9,0(r9)
   146a4:	7c e3 3b 78 	mr      r3,r7
   146a8:	7d 04 43 78 	mr      r4,r8
   146ac:	7d 25 4b 78 	mr      r5,r9
   146b0:	7d 46 53 78 	mr      r6,r10
   146b4:	4b ff cf e5 	bl      11698 <__adddf3>
   146b8:	7c 8a 23 78 	mr      r10,r4
   146bc:	7c 69 1b 78 	mr      r9,r3
   146c0:	3d 00 40 00 	lis     r8,16384
   146c4:	39 08 03 d0 	addi    r8,r8,976
   146c8:	91 28 00 00 	stw     r9,0(r8)
   146cc:	91 48 00 04 	stw     r10,4(r8)
   146d0:	3d 20 40 00 	lis     r9,16384
   146d4:	39 29 03 d0 	addi    r9,r9,976
   146d8:	81 49 00 04 	lwz     r10,4(r9)
   146dc:	81 29 00 00 	lwz     r9,0(r9)
   146e0:	7d 23 4b 78 	mr      r3,r9
   146e4:	7d 44 53 78 	mr      r4,r10
   146e8:	3c a0 c1 2e 	lis     r5,-16082
   146ec:	60 a5 84 80 	ori     r5,r5,33920
   146f0:	38 c0 00 00 	li      r6,0
   146f4:	4b ff d5 89 	bl      11c7c <__gtdf2>
   146f8:	7c 69 1b 78 	mr      r9,r3
   146fc:	2f 89 00 00 	cmpwi   cr7,r9,0
   14700:	40 9d 00 18 	ble-    cr7,14718 <pi_control+0x2fc>
   14704:	3d 20 40 00 	lis     r9,16384
   14708:	39 29 03 d0 	addi    r9,r9,976
   1470c:	81 49 00 04 	lwz     r10,4(r9)
   14710:	81 29 00 00 	lwz     r9,0(r9)
   14714:	48 00 00 10 	b       14724 <pi_control+0x308>
   14718:	3d 20 c1 2e 	lis     r9,-16082
   1471c:	61 29 84 80 	ori     r9,r9,33920
   14720:	39 40 00 00 	li      r10,0
   14724:	3d 00 40 00 	lis     r8,16384
   14728:	39 08 03 d0 	addi    r8,r8,976
   1472c:	91 28 00 00 	stw     r9,0(r8)
   14730:	91 48 00 04 	stw     r10,4(r8)
   14734:	3d 20 40 00 	lis     r9,16384
   14738:	39 29 03 d0 	addi    r9,r9,976
   1473c:	81 49 00 04 	lwz     r10,4(r9)
   14740:	81 29 00 00 	lwz     r9,0(r9)
   14744:	7d 23 4b 78 	mr      r3,r9
   14748:	7d 44 53 78 	mr      r4,r10
   1474c:	3c a0 41 2e 	lis     r5,16686
   14750:	60 a5 84 80 	ori     r5,r5,33920
   14754:	38 c0 00 00 	li      r6,0
   14758:	4b ff d6 05 	bl      11d5c <__ltdf2>
   1475c:	7c 69 1b 78 	mr      r9,r3
   14760:	2f 89 00 00 	cmpwi   cr7,r9,0
   14764:	40 9c 00 18 	bge-    cr7,1477c <pi_control+0x360>
   14768:	3d 20 40 00 	lis     r9,16384
   1476c:	39 29 03 d0 	addi    r9,r9,976
   14770:	81 49 00 04 	lwz     r10,4(r9)
   14774:	81 29 00 00 	lwz     r9,0(r9)
   14778:	48 00 00 10 	b       14788 <pi_control+0x36c>
   1477c:	3d 20 41 2e 	lis     r9,16686
   14780:	61 29 84 80 	ori     r9,r9,33920
   14784:	39 40 00 00 	li      r10,0
   14788:	3d 00 40 00 	lis     r8,16384
   1478c:	39 08 03 d0 	addi    r8,r8,976
   14790:	91 28 00 00 	stw     r9,0(r8)
   14794:	91 48 00 04 	stw     r10,4(r8)
   14798:	3d 20 40 00 	lis     r9,16384
   1479c:	81 29 03 bc 	lwz     r9,956(r9)
   147a0:	7d 23 4b 78 	mr      r3,r9
   147a4:	4b ff d6 29 	bl      11dcc <__floatsidf>
   147a8:	7c 88 23 78 	mr      r8,r4
   147ac:	7c 67 1b 78 	mr      r7,r3
   147b0:	3d 20 40 00 	lis     r9,16384
   147b4:	39 29 03 b0 	addi    r9,r9,944
   147b8:	81 49 00 04 	lwz     r10,4(r9)
   147bc:	81 29 00 00 	lwz     r9,0(r9)
   147c0:	7c e3 3b 78 	mr      r3,r7
   147c4:	7d 04 43 78 	mr      r4,r8
   147c8:	7d 25 4b 78 	mr      r5,r9
   147cc:	7d 46 53 78 	mr      r6,r10
   147d0:	4b ff cf 21 	bl      116f0 <__subdf3>
   147d4:	7c 8a 23 78 	mr      r10,r4
   147d8:	7c 69 1b 78 	mr      r9,r3
   147dc:	7d 27 4b 78 	mr      r7,r9
   147e0:	7d 48 53 78 	mr      r8,r10
   147e4:	3d 20 40 00 	lis     r9,16384
   147e8:	39 29 03 c0 	addi    r9,r9,960
   147ec:	81 49 00 04 	lwz     r10,4(r9)
   147f0:	81 29 00 00 	lwz     r9,0(r9)
   147f4:	7c e3 3b 78 	mr      r3,r7
   147f8:	7d 04 43 78 	mr      r4,r8
   147fc:	7d 25 4b 78 	mr      r5,r9
   14800:	7d 46 53 78 	mr      r6,r10
   14804:	4b ff cf 55 	bl      11758 <__muldf3>
   14808:	7c 8a 23 78 	mr      r10,r4
   1480c:	7c 69 1b 78 	mr      r9,r3
   14810:	7d 5e 53 78 	mr      r30,r10
   14814:	7d 3d 4b 78 	mr      r29,r9
   14818:	3d 20 40 00 	lis     r9,16384
   1481c:	39 29 03 c8 	addi    r9,r9,968
   14820:	80 e9 00 00 	lwz     r7,0(r9)
   14824:	81 09 00 04 	lwz     r8,4(r9)
   14828:	3d 20 40 00 	lis     r9,16384
   1482c:	39 29 03 d0 	addi    r9,r9,976
   14830:	81 49 00 04 	lwz     r10,4(r9)
   14834:	81 29 00 00 	lwz     r9,0(r9)
   14838:	7c e3 3b 78 	mr      r3,r7
   1483c:	7d 04 43 78 	mr      r4,r8
   14840:	7d 25 4b 78 	mr      r5,r9
   14844:	7d 46 53 78 	mr      r6,r10
   14848:	4b ff cf 11 	bl      11758 <__muldf3>
   1484c:	7c 8a 23 78 	mr      r10,r4
   14850:	7c 69 1b 78 	mr      r9,r3
   14854:	7f a3 eb 78 	mr      r3,r29
   14858:	7f c4 f3 78 	mr      r4,r30
   1485c:	7d 25 4b 78 	mr      r5,r9
   14860:	7d 46 53 78 	mr      r6,r10
   14864:	4b ff ce 35 	bl      11698 <__adddf3>
   14868:	7c 8a 23 78 	mr      r10,r4
   1486c:	7c 69 1b 78 	mr      r9,r3
   14870:	3d 00 40 00 	lis     r8,16384
   14874:	39 08 00 60 	addi    r8,r8,96
   14878:	91 28 00 00 	stw     r9,0(r8)
   1487c:	91 48 00 04 	stw     r10,4(r8)
   14880:	3d 20 40 00 	lis     r9,16384
   14884:	39 29 00 60 	addi    r9,r9,96
   14888:	81 49 00 04 	lwz     r10,4(r9)
   1488c:	81 29 00 00 	lwz     r9,0(r9)
   14890:	7d 23 4b 78 	mr      r3,r9
   14894:	7d 44 53 78 	mr      r4,r10
   14898:	3c a0 3f f0 	lis     r5,16368
   1489c:	38 c0 00 00 	li      r6,0
   148a0:	4b ff d4 bd 	bl      11d5c <__ltdf2>
   148a4:	7c 69 1b 78 	mr      r9,r3
   148a8:	2f 89 00 00 	cmpwi   cr7,r9,0
   148ac:	40 9c 00 18 	bge-    cr7,148c4 <pi_control+0x4a8>
   148b0:	3d 20 40 00 	lis     r9,16384
   148b4:	39 29 00 60 	addi    r9,r9,96
   148b8:	81 49 00 04 	lwz     r10,4(r9)
   148bc:	81 29 00 00 	lwz     r9,0(r9)
   148c0:	48 00 00 0c 	b       148cc <pi_control+0x4b0>
   148c4:	3d 20 3f f0 	lis     r9,16368
   148c8:	39 40 00 00 	li      r10,0
   148cc:	3d 00 40 00 	lis     r8,16384
   148d0:	39 08 00 60 	addi    r8,r8,96
   148d4:	91 28 00 00 	stw     r9,0(r8)
   148d8:	91 48 00 04 	stw     r10,4(r8)
   148dc:	3d 20 40 00 	lis     r9,16384
   148e0:	39 29 00 60 	addi    r9,r9,96
   148e4:	81 49 00 04 	lwz     r10,4(r9)
   148e8:	81 29 00 00 	lwz     r9,0(r9)
   148ec:	7d 23 4b 78 	mr      r3,r9
   148f0:	7d 44 53 78 	mr      r4,r10
   148f4:	3c a0 bf f0 	lis     r5,-16400
   148f8:	38 c0 00 00 	li      r6,0
   148fc:	4b ff d3 81 	bl      11c7c <__gtdf2>
   14900:	7c 69 1b 78 	mr      r9,r3
   14904:	2f 89 00 00 	cmpwi   cr7,r9,0
   14908:	40 9d 00 18 	ble-    cr7,14920 <pi_control+0x504>
   1490c:	3d 20 40 00 	lis     r9,16384
   14910:	39 29 00 60 	addi    r9,r9,96
   14914:	81 49 00 04 	lwz     r10,4(r9)
   14918:	81 29 00 00 	lwz     r9,0(r9)
   1491c:	48 00 00 0c 	b       14928 <pi_control+0x50c>
   14920:	3d 20 bf f0 	lis     r9,-16400
   14924:	39 40 00 00 	li      r10,0
   14928:	3d 00 40 00 	lis     r8,16384
   1492c:	39 08 00 60 	addi    r8,r8,96
   14930:	91 28 00 00 	stw     r9,0(r8)
   14934:	91 48 00 04 	stw     r10,4(r8)
   14938:	39 7f 00 20 	addi    r11,r31,32
   1493c:	80 0b 00 04 	lwz     r0,4(r11)
   14940:	7c 08 03 a6 	mtlr    r0
   14944:	83 ab ff f4 	lwz     r29,-12(r11)
   14948:	83 cb ff f8 	lwz     r30,-8(r11)
   1494c:	83 eb ff fc 	lwz     r31,-4(r11)
   14950:	7d 61 5b 78 	mr      r1,r11
   14954:	4e 80 00 20 	blr

00014958 <etimer00ISR>:
   14958:	94 21 ff f0 	stwu    r1,-16(r1)
   1495c:	7c 08 02 a6 	mflr    r0
   14960:	90 01 00 14 	stw     r0,20(r1)
   14964:	93 e1 00 0c 	stw     r31,12(r1)
   14968:	7c 3f 0b 78 	mr      r31,r1
   1496c:	3d 20 ff e1 	lis     r9,-31
   14970:	61 29 80 00 	ori     r9,r9,32768
   14974:	a1 29 00 14 	lhz     r9,20(r9)
   14978:	55 29 04 3e 	clrlwi  r9,r9,16
   1497c:	55 29 07 38 	rlwinm  r9,r9,0,28,28
   14980:	55 29 04 3e 	clrlwi  r9,r9,16
   14984:	2f 89 00 00 	cmpwi   cr7,r9,0
   14988:	41 9e 00 58 	beq-    cr7,149e0 <etimer00ISR+0x88>
   1498c:	4b ff e4 6d 	bl      12df8 <initHall>
   14990:	3d 20 40 00 	lis     r9,16384
   14994:	39 29 00 1c 	addi    r9,r9,28
   14998:	39 40 00 00 	li      r10,0
   1499c:	61 4a ff ff 	ori     r10,r10,65535
   149a0:	91 49 00 00 	stw     r10,0(r9)
   149a4:	3d 20 40 00 	lis     r9,16384
   149a8:	39 09 03 d0 	addi    r8,r9,976
   149ac:	39 20 00 00 	li      r9,0
   149b0:	39 40 00 00 	li      r10,0
   149b4:	91 28 00 00 	stw     r9,0(r8)
   149b8:	91 48 00 04 	stw     r10,4(r8)
   149bc:	38 60 00 00 	li      r3,0
   149c0:	4b ff fa 5d 	bl      1441c <pi_control>
   149c4:	4b ff f1 55 	bl      13b18 <updatePWM>
   149c8:	3d 20 ff e1 	lis     r9,-31
   149cc:	61 29 80 00 	ori     r9,r9,32768
   149d0:	a1 49 00 14 	lhz     r10,20(r9)
   149d4:	61 4a 00 08 	ori     r10,r10,8
   149d8:	b1 49 00 14 	sth     r10,20(r9)
   149dc:	48 00 00 d0 	b       14aac <etimer00ISR+0x154>
   149e0:	4b ff e4 19 	bl      12df8 <initHall>
   149e4:	3d 20 ff e1 	lis     r9,-31
   149e8:	61 29 80 00 	ori     r9,r9,32768
   149ec:	a1 29 00 04 	lhz     r9,4(r9)
   149f0:	55 29 04 3e 	clrlwi  r9,r9,16
   149f4:	7d 2a 4b 78 	mr      r10,r9
   149f8:	3d 20 40 00 	lis     r9,16384
   149fc:	39 29 00 1c 	addi    r9,r9,28
   14a00:	91 49 00 00 	stw     r10,0(r9)
   14a04:	38 60 00 00 	li      r3,0
   14a08:	4b ff fa 15 	bl      1441c <pi_control>
   14a0c:	4b ff f1 0d 	bl      13b18 <updatePWM>
   14a10:	3d 20 ff e1 	lis     r9,-31
   14a14:	61 29 80 00 	ori     r9,r9,32768
   14a18:	a1 49 00 14 	lhz     r10,20(r9)
   14a1c:	61 4a 00 40 	ori     r10,r10,64
   14a20:	b1 49 00 14 	sth     r10,20(r9)
   14a24:	3d 20 40 00 	lis     r9,16384
   14a28:	81 29 00 10 	lwz     r9,16(r9)
   14a2c:	39 49 00 01 	addi    r10,r9,1
   14a30:	3d 20 40 00 	lis     r9,16384
   14a34:	91 49 00 10 	stw     r10,16(r9)
   14a38:	3d 20 ff e1 	lis     r9,-31
   14a3c:	61 29 80 00 	ori     r9,r9,32768
   14a40:	a1 29 00 12 	lhz     r9,18(r9)
   14a44:	55 29 04 3e 	clrlwi  r9,r9,16
   14a48:	55 29 f0 be 	rlwinm  r9,r9,30,2,31
   14a4c:	55 29 07 7e 	clrlwi  r9,r9,29
   14a50:	55 29 06 3e 	clrlwi  r9,r9,24
   14a54:	7d 2a 4b 78 	mr      r10,r9
   14a58:	3d 20 40 00 	lis     r9,16384
   14a5c:	39 29 03 d8 	addi    r9,r9,984
   14a60:	91 49 00 00 	stw     r10,0(r9)
   14a64:	3d 20 40 00 	lis     r9,16384
   14a68:	81 49 00 10 	lwz     r10,16(r9)
   14a6c:	3d 20 cc cc 	lis     r9,-13108
   14a70:	61 29 cc cd 	ori     r9,r9,52429
   14a74:	7d 2a 48 16 	mulhwu  r9,r10,r9
   14a78:	55 29 e8 fe 	rlwinm  r9,r9,29,3,31
   14a7c:	55 29 08 3c 	rlwinm  r9,r9,1,0,30
   14a80:	55 28 10 3a 	rlwinm  r8,r9,2,0,29
   14a84:	7d 29 42 14 	add     r9,r9,r8
   14a88:	7d 29 50 50 	subf    r9,r9,r10
   14a8c:	3d 40 40 00 	lis     r10,16384
   14a90:	39 4a 00 1c 	addi    r10,r10,28
   14a94:	81 4a 00 00 	lwz     r10,0(r10)
   14a98:	3d 00 40 00 	lis     r8,16384
   14a9c:	39 08 03 e4 	addi    r8,r8,996
   14aa0:	55 29 10 3a 	rlwinm  r9,r9,2,0,29
   14aa4:	7d 28 4a 14 	add     r9,r8,r9
   14aa8:	91 49 00 00 	stw     r10,0(r9)
   14aac:	39 7f 00 10 	addi    r11,r31,16
   14ab0:	80 0b 00 04 	lwz     r0,4(r11)
   14ab4:	7c 08 03 a6 	mtlr    r0
   14ab8:	83 eb ff fc 	lwz     r31,-4(r11)
   14abc:	7d 61 5b 78 	mr      r1,r11
   14ac0:	4e 80 00 20 	blr

00014ac4 <etimer01ISR>:
   14ac4:	94 21 ff f0 	stwu    r1,-16(r1)
   14ac8:	7c 08 02 a6 	mflr    r0
   14acc:	90 01 00 14 	stw     r0,20(r1)
   14ad0:	93 e1 00 0c 	stw     r31,12(r1)
   14ad4:	7c 3f 0b 78 	mr      r31,r1
   14ad8:	4b ff e3 21 	bl      12df8 <initHall>
   14adc:	3d 20 ff e1 	lis     r9,-31
   14ae0:	61 29 80 20 	ori     r9,r9,32800
   14ae4:	a1 29 00 04 	lhz     r9,4(r9)
   14ae8:	55 29 04 3e 	clrlwi  r9,r9,16
   14aec:	7d 2a 4b 78 	mr      r10,r9
   14af0:	3d 20 40 00 	lis     r9,16384
   14af4:	39 29 00 1c 	addi    r9,r9,28
   14af8:	91 49 00 04 	stw     r10,4(r9)
   14afc:	38 60 00 01 	li      r3,1
   14b00:	4b ff f9 1d 	bl      1441c <pi_control>
   14b04:	4b ff f0 15 	bl      13b18 <updatePWM>
   14b08:	3d 20 ff e1 	lis     r9,-31
   14b0c:	61 29 80 20 	ori     r9,r9,32800
   14b10:	a1 49 00 14 	lhz     r10,20(r9)
   14b14:	61 4a 00 40 	ori     r10,r10,64
   14b18:	b1 49 00 14 	sth     r10,20(r9)
   14b1c:	3d 20 40 00 	lis     r9,16384
   14b20:	81 29 00 14 	lwz     r9,20(r9)
   14b24:	39 49 00 01 	addi    r10,r9,1
   14b28:	3d 20 40 00 	lis     r9,16384
   14b2c:	91 49 00 14 	stw     r10,20(r9)
   14b30:	3d 20 ff e1 	lis     r9,-31
   14b34:	61 29 80 20 	ori     r9,r9,32800
   14b38:	a1 29 00 12 	lhz     r9,18(r9)
   14b3c:	55 29 04 3e 	clrlwi  r9,r9,16
   14b40:	55 29 f0 be 	rlwinm  r9,r9,30,2,31
   14b44:	55 29 07 7e 	clrlwi  r9,r9,29
   14b48:	55 29 06 3e 	clrlwi  r9,r9,24
   14b4c:	7d 2a 4b 78 	mr      r10,r9
   14b50:	3d 20 40 00 	lis     r9,16384
   14b54:	39 29 03 d8 	addi    r9,r9,984
   14b58:	91 49 00 04 	stw     r10,4(r9)
   14b5c:	3d 20 40 00 	lis     r9,16384
   14b60:	81 49 00 14 	lwz     r10,20(r9)
   14b64:	3d 20 cc cc 	lis     r9,-13108
   14b68:	61 29 cc cd 	ori     r9,r9,52429
   14b6c:	7d 2a 48 16 	mulhwu  r9,r10,r9
   14b70:	55 29 e8 fe 	rlwinm  r9,r9,29,3,31
   14b74:	55 29 08 3c 	rlwinm  r9,r9,1,0,30
   14b78:	55 28 10 3a 	rlwinm  r8,r9,2,0,29
   14b7c:	7d 29 42 14 	add     r9,r9,r8
   14b80:	7d 29 50 50 	subf    r9,r9,r10
   14b84:	3d 40 40 00 	lis     r10,16384
   14b88:	39 4a 00 1c 	addi    r10,r10,28
   14b8c:	81 4a 00 04 	lwz     r10,4(r10)
   14b90:	3d 00 40 00 	lis     r8,16384
   14b94:	39 08 05 74 	addi    r8,r8,1396
   14b98:	55 29 10 3a 	rlwinm  r9,r9,2,0,29
   14b9c:	7d 28 4a 14 	add     r9,r8,r9
   14ba0:	91 49 00 00 	stw     r10,0(r9)
   14ba4:	39 7f 00 10 	addi    r11,r31,16
   14ba8:	80 0b 00 04 	lwz     r0,4(r11)
   14bac:	7c 08 03 a6 	mtlr    r0
   14bb0:	83 eb ff fc 	lwz     r31,-4(r11)
   14bb4:	7d 61 5b 78 	mr      r1,r11
   14bb8:	4e 80 00 20 	blr

00014bbc <etimer02ISR>:
   14bbc:	94 21 ff f0 	stwu    r1,-16(r1)
   14bc0:	7c 08 02 a6 	mflr    r0
   14bc4:	90 01 00 14 	stw     r0,20(r1)
   14bc8:	93 e1 00 0c 	stw     r31,12(r1)
   14bcc:	7c 3f 0b 78 	mr      r31,r1
   14bd0:	4b ff e2 29 	bl      12df8 <initHall>
   14bd4:	3d 20 ff e1 	lis     r9,-31
   14bd8:	61 29 80 40 	ori     r9,r9,32832
   14bdc:	a1 29 00 04 	lhz     r9,4(r9)
   14be0:	55 29 04 3e 	clrlwi  r9,r9,16
   14be4:	7d 2a 4b 78 	mr      r10,r9
   14be8:	3d 20 40 00 	lis     r9,16384
   14bec:	39 29 00 1c 	addi    r9,r9,28
   14bf0:	91 49 00 08 	stw     r10,8(r9)
   14bf4:	38 60 00 02 	li      r3,2
   14bf8:	4b ff f8 25 	bl      1441c <pi_control>
   14bfc:	4b ff ef 1d 	bl      13b18 <updatePWM>
   14c00:	3d 20 ff e1 	lis     r9,-31
   14c04:	61 29 80 40 	ori     r9,r9,32832
   14c08:	a1 49 00 14 	lhz     r10,20(r9)
   14c0c:	61 4a 00 40 	ori     r10,r10,64
   14c10:	b1 49 00 14 	sth     r10,20(r9)
   14c14:	3d 20 40 00 	lis     r9,16384
   14c18:	81 29 00 18 	lwz     r9,24(r9)
   14c1c:	39 49 00 01 	addi    r10,r9,1
   14c20:	3d 20 40 00 	lis     r9,16384
   14c24:	91 49 00 18 	stw     r10,24(r9)
   14c28:	3d 20 ff e1 	lis     r9,-31
   14c2c:	61 29 80 40 	ori     r9,r9,32832
   14c30:	a1 29 00 12 	lhz     r9,18(r9)
   14c34:	55 29 04 3e 	clrlwi  r9,r9,16
   14c38:	55 29 f0 be 	rlwinm  r9,r9,30,2,31
   14c3c:	55 29 07 7e 	clrlwi  r9,r9,29
   14c40:	55 29 06 3e 	clrlwi  r9,r9,24
   14c44:	7d 2a 4b 78 	mr      r10,r9
   14c48:	3d 20 40 00 	lis     r9,16384
   14c4c:	39 29 03 d8 	addi    r9,r9,984
   14c50:	91 49 00 08 	stw     r10,8(r9)
   14c54:	3d 20 40 00 	lis     r9,16384
   14c58:	81 49 00 18 	lwz     r10,24(r9)
   14c5c:	3d 20 cc cc 	lis     r9,-13108
   14c60:	61 29 cc cd 	ori     r9,r9,52429
   14c64:	7d 2a 48 16 	mulhwu  r9,r10,r9
   14c68:	55 29 e8 fe 	rlwinm  r9,r9,29,3,31
   14c6c:	55 29 08 3c 	rlwinm  r9,r9,1,0,30
   14c70:	55 28 10 3a 	rlwinm  r8,r9,2,0,29
   14c74:	7d 29 42 14 	add     r9,r9,r8
   14c78:	7d 29 50 50 	subf    r9,r9,r10
   14c7c:	3d 40 40 00 	lis     r10,16384
   14c80:	39 4a 00 1c 	addi    r10,r10,28
   14c84:	81 4a 00 08 	lwz     r10,8(r10)
   14c88:	3d 00 40 00 	lis     r8,16384
   14c8c:	39 08 07 04 	addi    r8,r8,1796
   14c90:	55 29 10 3a 	rlwinm  r9,r9,2,0,29
   14c94:	7d 28 4a 14 	add     r9,r8,r9
   14c98:	91 49 00 00 	stw     r10,0(r9)
   14c9c:	39 7f 00 10 	addi    r11,r31,16
   14ca0:	80 0b 00 04 	lwz     r0,4(r11)
   14ca4:	7c 08 03 a6 	mtlr    r0
   14ca8:	83 eb ff fc 	lwz     r31,-4(r11)
   14cac:	7d 61 5b 78 	mr      r1,r11
   14cb0:	4e 80 00 20 	blr

00014cb4 <SwIrq3ISR>:
   14cb4:	94 21 ff f0 	stwu    r1,-16(r1)
   14cb8:	93 e1 00 0c 	stw     r31,12(r1)
   14cbc:	7c 3f 0b 78 	mr      r31,r1
   14cc0:	3d 20 40 00 	lis     r9,16384
   14cc4:	81 29 08 98 	lwz     r9,2200(r9)
   14cc8:	81 49 00 00 	lwz     r10,0(r9)
   14ccc:	3d 20 40 00 	lis     r9,16384
   14cd0:	91 49 03 bc 	stw     r10,956(r9)
   14cd4:	3d 20 40 00 	lis     r9,16384
   14cd8:	81 29 08 98 	lwz     r9,2200(r9)
   14cdc:	81 49 00 0c 	lwz     r10,12(r9)
   14ce0:	81 29 00 08 	lwz     r9,8(r9)
   14ce4:	3d 00 40 00 	lis     r8,16384
   14ce8:	39 08 03 c0 	addi    r8,r8,960
   14cec:	91 28 00 00 	stw     r9,0(r8)
   14cf0:	91 48 00 04 	stw     r10,4(r8)
   14cf4:	3d 20 40 00 	lis     r9,16384
   14cf8:	81 29 08 98 	lwz     r9,2200(r9)
   14cfc:	81 49 00 14 	lwz     r10,20(r9)
   14d00:	81 29 00 10 	lwz     r9,16(r9)
   14d04:	3d 00 40 00 	lis     r8,16384
   14d08:	39 08 03 c8 	addi    r8,r8,968
   14d0c:	91 28 00 00 	stw     r9,0(r8)
   14d10:	91 48 00 04 	stw     r10,4(r8)
   14d14:	3d 20 40 00 	lis     r9,16384
   14d18:	81 09 08 94 	lwz     r8,2196(r9)
   14d1c:	3d 20 40 00 	lis     r9,16384
   14d20:	39 29 03 c0 	addi    r9,r9,960
   14d24:	81 49 00 04 	lwz     r10,4(r9)
   14d28:	81 29 00 00 	lwz     r9,0(r9)
   14d2c:	91 28 00 10 	stw     r9,16(r8)
   14d30:	91 48 00 14 	stw     r10,20(r8)
   14d34:	3d 20 40 00 	lis     r9,16384
   14d38:	81 09 08 94 	lwz     r8,2196(r9)
   14d3c:	3d 20 40 00 	lis     r9,16384
   14d40:	39 29 03 c8 	addi    r9,r9,968
   14d44:	81 49 00 04 	lwz     r10,4(r9)
   14d48:	81 29 00 00 	lwz     r9,0(r9)
   14d4c:	91 28 00 18 	stw     r9,24(r8)
   14d50:	91 48 00 1c 	stw     r10,28(r8)
   14d54:	3d 20 40 00 	lis     r9,16384
   14d58:	81 09 08 94 	lwz     r8,2196(r9)
   14d5c:	3d 20 40 00 	lis     r9,16384
   14d60:	39 29 03 b0 	addi    r9,r9,944
   14d64:	81 49 00 04 	lwz     r10,4(r9)
   14d68:	81 29 00 00 	lwz     r9,0(r9)
   14d6c:	91 28 00 00 	stw     r9,0(r8)
   14d70:	91 48 00 04 	stw     r10,4(r8)
   14d74:	3d 20 40 00 	lis     r9,16384
   14d78:	81 09 08 94 	lwz     r8,2196(r9)
   14d7c:	3d 20 40 00 	lis     r9,16384
   14d80:	39 29 00 60 	addi    r9,r9,96
   14d84:	81 49 00 04 	lwz     r10,4(r9)
   14d88:	81 29 00 00 	lwz     r9,0(r9)
   14d8c:	91 28 00 08 	stw     r9,8(r8)
   14d90:	91 48 00 0c 	stw     r10,12(r8)
   14d94:	3d 20 ff f4 	lis     r9,-12
   14d98:	61 29 80 00 	ori     r9,r9,32768
   14d9c:	39 40 00 01 	li      r10,1
   14da0:	99 49 00 23 	stb     r10,35(r9)
   14da4:	39 7f 00 10 	addi    r11,r31,16
   14da8:	83 eb ff fc 	lwz     r31,-4(r11)
   14dac:	7d 61 5b 78 	mr      r1,r11
   14db0:	4e 80 00 20 	blr

00014db4 <init_app>:
   14db4:	94 21 ff f0 	stwu    r1,-16(r1)
   14db8:	7c 08 02 a6 	mflr    r0
   14dbc:	90 01 00 14 	stw     r0,20(r1)
   14dc0:	93 e1 00 0c 	stw     r31,12(r1)
   14dc4:	7c 3f 0b 78 	mr      r31,r1
   14dc8:	4b ff dc 55 	bl      12a1c <initSWIRQs>
   14dcc:	4b ff db f5 	bl      129c0 <initLEDs>
   14dd0:	4b ff dc 79 	bl      12a48 <initETIMER>
   14dd4:	4b ff e0 25 	bl      12df8 <initHall>
   14dd8:	4b ff e0 cd 	bl      12ea4 <initPWM>
   14ddc:	4b ff e5 a9 	bl      13384 <initTables>
   14de0:	4b ff ed 01 	bl      13ae0 <enableIRQ>
   14de4:	3d 20 40 00 	lis     r9,16384
   14de8:	39 40 00 00 	li      r10,0
   14dec:	91 49 03 bc 	stw     r10,956(r9)
   14df0:	3d 20 40 00 	lis     r9,16384
   14df4:	39 09 03 c0 	addi    r8,r9,960
   14df8:	3d 20 3f 40 	lis     r9,16192
   14dfc:	61 29 62 4d 	ori     r9,r9,25165
   14e00:	3d 40 d2 f1 	lis     r10,-11535
   14e04:	61 4a a9 fc 	ori     r10,r10,43516
   14e08:	91 28 00 00 	stw     r9,0(r8)
   14e0c:	91 48 00 04 	stw     r10,4(r8)
   14e10:	3d 20 40 00 	lis     r9,16384
   14e14:	39 09 03 c8 	addi    r8,r9,968
   14e18:	3d 20 3e d4 	lis     r9,16084
   14e1c:	61 29 f8 b5 	ori     r9,r9,63669
   14e20:	3d 40 88 e3 	lis     r10,-30493
   14e24:	61 4a 68 f1 	ori     r10,r10,26865
   14e28:	91 28 00 00 	stw     r9,0(r8)
   14e2c:	91 48 00 04 	stw     r10,4(r8)
   14e30:	3d 20 40 00 	lis     r9,16384
   14e34:	39 09 03 d0 	addi    r8,r9,976
   14e38:	39 20 00 00 	li      r9,0
   14e3c:	39 40 00 00 	li      r10,0
   14e40:	91 28 00 00 	stw     r9,0(r8)
   14e44:	91 48 00 04 	stw     r10,4(r8)
   14e48:	3d 20 40 00 	lis     r9,16384
   14e4c:	39 09 03 b0 	addi    r8,r9,944
   14e50:	39 20 00 00 	li      r9,0
   14e54:	39 40 00 00 	li      r10,0
   14e58:	91 28 00 00 	stw     r9,0(r8)
   14e5c:	91 48 00 04 	stw     r10,4(r8)
   14e60:	3d 20 40 00 	lis     r9,16384
   14e64:	39 40 00 00 	li      r10,0
   14e68:	91 49 03 b8 	stw     r10,952(r9)
   14e6c:	3d 20 40 00 	lis     r9,16384
   14e70:	3d 40 50 00 	lis     r10,20480
   14e74:	61 4a 10 00 	ori     r10,r10,4096
   14e78:	91 49 08 94 	stw     r10,2196(r9)
   14e7c:	3d 20 40 00 	lis     r9,16384
   14e80:	3d 40 50 00 	lis     r10,20480
   14e84:	61 4a 20 00 	ori     r10,r10,8192
   14e88:	91 49 08 98 	stw     r10,2200(r9)
   14e8c:	39 7f 00 10 	addi    r11,r31,16
   14e90:	80 0b 00 04 	lwz     r0,4(r11)
   14e94:	7c 08 03 a6 	mtlr    r0
   14e98:	83 eb ff fc 	lwz     r31,-4(r11)
   14e9c:	7d 61 5b 78 	mr      r1,r11
   14ea0:	4e 80 00 20 	blr

00014ea4 <run_app>:
   14ea4:	94 21 ff f0 	stwu    r1,-16(r1)
   14ea8:	93 e1 00 0c 	stw     r31,12(r1)
   14eac:	7c 3f 0b 78 	mr      r31,r1
   14eb0:	48 00 00 00 	b       14eb0 <run_app+0xc>

Disassembly of section .PPC.EMB.apuinfo:

00000000 <.PPC.EMB.apuinfo>:
   0:	00 00 00 08 	.long 0x8
   4:	00 00 00 08 	.long 0x8
   8:	00 00 00 02 	.long 0x2
   c:	41 50 55 69 	bdztl-  4*cr4+lt,5574 <__STACK_SIZE+0x4574>
  10:	6e 66 6f 00 	xoris   r6,r19,28416
  14:	00 40 00 01 	.long 0x400001
  18:	01 04 00 01 	.long 0x1040001
